Certificate:
    Data:
        Version: 3 (0x2)
        Serial Number:
            9d:c9:8f:1a:10:f2:fa:69
        Signature Algorithm: sha1WithRSAEncryption
        Issuer: O=Flumotion Services S.A., O=http://www.flumotion.net/feat, OU=Feat Core Team, CN=Feat Development Test1 CA/emailAddress=coreteam@flumotion.com, L=Barcelona, ST=Spain, C=ES
        Validity
            Not Before: Sep  8 17:35:41 2011 GMT
            Not After : Sep  6 17:35:41 2019 GMT
        Subject: O=Flumotion Services S.A., O=http://www.flumotion.net/feat, OU=Feat Core Team, CN=client1 test1/emailAddress=client1@test1.lan, L=Barcelona, ST=Spain, C=ES
        Subject Public Key Info:
            Public Key Algorithm: rsaEncryption
            RSA Public Key: (1024 bit)
                Modulus (1024 bit):
                    00:a8:14:0b:f4:d6:60:f1:16:6c:4f:69:1c:0a:77:
                    49:eb:ce:d4:76:8a:5f:f3:56:df:1c:94:d8:cf:a1:
                    38:99:fc:87:06:ab:04:2a:0c:24:0f:a6:8f:c2:2b:
                    5e:4f:03:c7:99:29:2b:a5:5a:0b:77:97:35:5c:a9:
                    54:46:6f:c8:63:d6:2f:ee:84:5d:9a:a7:30:71:53:
                    03:f9:0b:02:c8:68:27:f1:36:11:bc:a7:ae:8b:69:
                    6b:53:0a:11:aa:45:d5:f2:e1:d4:97:2e:8a:f7:e8:
                    e6:be:4d:15:63:b8:3d:4b:62:21:cd:c3:51:f2:b7:
                    0d:ab:e9:a6:76:25:35:13:9b
                Exponent: 65537 (0x10001)
        X509v3 extensions:
            X509v3 Basic Constraints: 
                CA:FALSE
            Netscape Comment: 
                SSL Client Certificate
            X509v3 Key Usage: 
                Digital Signature, Key Encipherment
            X509v3 Extended Key Usage: 
                TLS Web Client Authentication
            Netscape Cert Type: 
                SSL Client
            X509v3 Subject Key Identifier: 
                8D:98:76:69:4C:9C:ED:E4:79:03:2D:7A:38:07:BF:B9:C5:96:B7:39
            X509v3 Authority Key Identifier: 
                keyid:9B:A1:DB:2B:83:47:1A:F1:A3:27:91:C2:98:4B:77:E8:E8:CE:DD:E4
                DirName:/O=Flumotion Services S.A./O=http://www.flumotion.net/feat/OU=Feat Core Team/CN=Feat Development Root CA/emailAddress=coreteam@flumotion.com/L=Barcelona/ST=Spain/C=ES
                serial:E1:82:F5:0D:36:ED:56:BD

            Authority Information Access: 
                CA Issuers - URI:http://www.flumotion.com/feat/dev_ca/cainfo.html

            X509v3 CRL Distribution Points: 
                URI:http://www.flumotion.com/feat/dev_crl/issuing_ca.crl

            X509v3 Certificate Policies: 
                Policy: Feat-CPS
                  CPS: http://www.flumotion.net/feat/dev_ca/feat_cps.html
                  User Notice:
                    Explicit Text: Flumotion Services S.A. Certification Practice Statement
                Policy: Feat-TLS-WEB-Cert
                  User Notice:
                    Explicit Text: Flumotion Services S.A. Secure Communications Web Server Certificate Policy

    Signature Algorithm: sha1WithRSAEncryption
        9b:c7:8a:fd:f6:bd:7b:e0:cd:3d:a1:32:6e:d3:92:78:20:d9:
        65:70:4b:b5:bc:53:bd:71:aa:a2:2c:63:00:3c:a3:a9:88:4c:
        a4:3c:e2:db:4f:da:f2:1b:03:5e:79:48:96:10:f6:0d:2a:62:
        b3:8d:43:bd:90:8d:08:a1:ca:b3:8c:89:36:2f:24:9b:6b:9d:
        cd:9a:08:08:91:f2:0f:d1:f9:41:e5:9a:29:94:69:d9:82:26:
        6e:dd:95:d0:19:ef:10:93:4a:6a:c9:78:cb:14:c2:41:eb:b6:
        9f:3b:4a:1c:6c:36:b8:94:08:ef:9b:63:71:34:2c:1c:06:d8:
        91:4b:42:ad:d5:ca:e6:89:84:58:32:39:51:92:bb:5c:33:8a:
        5a:e4:6f:83:98:7e:c5:9e:cd:11:2f:e3:31:0c:57:ab:04:05:
        11:1f:c0:a3:a6:13:c2:11:9f:93:ad:c8:89:31:0d:87:79:fa:
        ca:d4:5c:bc:2d:85:f8:88:46:d2:8b:57:c4:5e:4d:93:b7:d2:
        68:c2:d9:67:93:cd:19:cd:03:f6:3a:4c:0a:ca:47:27:f3:e5:
        c8:11:3e:80:8b:b9:f1:21:34:cf:7c:62:9d:6c:7b:80:b8:3d:
        56:4a:96:7d:96:33:5d:ac:30:fe:b7:a8:f2:c1:6a:a8:f2:86:
        fd:13:94:1c
-----BEGIN CERTIFICATE-----
MIIG/jCCBeagAwIBAgIJAJ3JjxoQ8vppMA0GCSqGSIb3DQEBBQUAMIHfMSAwHgYD
VQQKExdGbHVtb3Rpb24gU2VydmljZXMgUy5BLjEmMCQGA1UEChMdaHR0cDovL3d3
dy5mbHVtb3Rpb24ubmV0L2ZlYXQxFzAVBgNVBAsTDkZlYXQgQ29yZSBUZWFtMSIw
IAYDVQQDExlGZWF0IERldmVsb3BtZW50IFRlc3QxIENBMSUwIwYJKoZIhvcNAQkB
FhZjb3JldGVhbUBmbHVtb3Rpb24uY29tMRIwEAYDVQQHEwlCYXJjZWxvbmExDjAM
BgNVBAgTBVNwYWluMQswCQYDVQQGEwJFUzAeFw0xMTA5MDgxNzM1NDFaFw0xOTA5
MDYxNzM1NDFaMIHOMSAwHgYDVQQKExdGbHVtb3Rpb24gU2VydmljZXMgUy5BLjEm
MCQGA1UEChMdaHR0cDovL3d3dy5mbHVtb3Rpb24ubmV0L2ZlYXQxFzAVBgNVBAsT
DkZlYXQgQ29yZSBUZWFtMRYwFAYDVQQDEw1jbGllbnQxIHRlc3QxMSAwHgYJKoZI
hvcNAQkBFhFjbGllbnQxQHRlc3QxLmxhbjESMBAGA1UEBxMJQmFyY2Vsb25hMQ4w
DAYDVQQIEwVTcGFpbjELMAkGA1UEBhMCRVMwgZ8wDQYJKoZIhvcNAQEBBQADgY0A
MIGJAoGBAKgUC/TWYPEWbE9pHAp3SevO1HaKX/NW3xyU2M+hOJn8hwarBCoMJA+m
j8IrXk8Dx5kpK6VaC3eXNVypVEZvyGPWL+6EXZqnMHFTA/kLAshoJ/E2Ebynrotp
a1MKEapF1fLh1Jcuivfo5r5NFWO4PUtiIc3DUfK3DavppnYlNRObAgMBAAGjggNO
MIIDSjAJBgNVHRMEAjAAMCUGCWCGSAGG+EIBDQQYFhZTU0wgQ2xpZW50IENlcnRp
ZmljYXRlMAsGA1UdDwQEAwIFoDATBgNVHSUEDDAKBggrBgEFBQcDAjARBglghkgB
hvhCAQEEBAMCB4AwHQYDVR0OBBYEFI2YdmlMnO3keQMtejgHv7nFlrc5MIIBFQYD
VR0jBIIBDDCCAQiAFJuh2yuDRxrxoyeRwphLd+jozt3koYHkpIHhMIHeMSAwHgYD
VQQKExdGbHVtb3Rpb24gU2VydmljZXMgUy5BLjEmMCQGA1UEChMdaHR0cDovL3d3
dy5mbHVtb3Rpb24ubmV0L2ZlYXQxFzAVBgNVBAsTDkZlYXQgQ29yZSBUZWFtMSEw
HwYDVQQDExhGZWF0IERldmVsb3BtZW50IFJvb3QgQ0ExJTAjBgkqhkiG9w0BCQEW
FmNvcmV0ZWFtQGZsdW1vdGlvbi5jb20xEjAQBgNVBAcTCUJhcmNlbG9uYTEOMAwG
A1UECBMFU3BhaW4xCzAJBgNVBAYTAkVTggkA4YL1DTbtVr0wTAYIKwYBBQUHAQEE
QDA+MDwGCCsGAQUFBzAChjBodHRwOi8vd3d3LmZsdW1vdGlvbi5jb20vZmVhdC9k
ZXZfY2EvY2FpbmZvLmh0bWwwRQYDVR0fBD4wPDA6oDigNoY0aHR0cDovL3d3dy5m
bHVtb3Rpb24uY29tL2ZlYXQvZGV2X2NybC9pc3N1aW5nX2NhLmNybDCCARIGA1Ud
IASCAQkwggEFMIGXBgorBgEEAYHyJAEBMIGIMD4GCCsGAQUFBwIBFjJodHRwOi8v
d3d3LmZsdW1vdGlvbi5uZXQvZmVhdC9kZXZfY2EvZmVhdF9jcHMuaHRtbDBGBggr
BgEFBQcCAjA6GjhGbHVtb3Rpb24gU2VydmljZXMgUy5BLiBDZXJ0aWZpY2F0aW9u
IFByYWN0aWNlIFN0YXRlbWVudDBpBgorBgEEAYHyJAMCMFswWQYIKwYBBQUHAgIw
TRpLRmx1bW90aW9uIFNlcnZpY2VzIFMuQS4gU2VjdXJlIENvbW11bmljYXRpb25z
IFdlYiBTZXJ2ZXIgQ2VydGlmaWNhdGUgUG9saWN5MA0GCSqGSIb3DQEBBQUAA4IB
AQCbx4r99r174M09oTJu05J4INllcEu1vFO9caqiLGMAPKOpiEykPOLbT9ryGwNe
eUiWEPYNKmKzjUO9kI0IocqzjIk2LySba53NmggIkfIP0flB5ZoplGnZgiZu3ZXQ
Ge8Qk0pqyXjLFMJB67afO0ocbDa4lAjvm2NxNCwcBtiRS0Kt1crmiYRYMjlRkrtc
M4pa5G+DmH7Fns0RL+MxDFerBAURH8CjphPCEZ+TrciJMQ2HefrK1Fy8LYX4iEbS
i1fEXk2Tt9Jowtlnk80ZzQP2OkwKykcn8+XIET6Ai7nxITTPfGKdbHuAuD1WSpZ9
ljNdrDD+t6jywWqo8ob9E5Qc
-----END CERTIFICATE-----
