Certificate:
    Data:
        Version: 3 (0x2)
        Serial Number:
            9d:c9:8f:1a:10:f2:fa:68
        Signature Algorithm: sha1WithRSAEncryption
        Issuer: O=Flumotion Services S.A., O=http://www.flumotion.net/feat, OU=Feat Core Team, CN=Feat Development Test1 CA/emailAddress=coreteam@flumotion.com, L=Barcelona, ST=Spain, C=ES
        Validity
            Not Before: Sep  8 17:34:21 2011 GMT
            Not After : Sep  6 17:34:21 2019 GMT
        Subject: O=Flumotion Services S.A., O=http://www.flumotion.net/feat, OU=Feat Core Team, CN=flumotion.net, L=Barcelona, ST=Spain, C=ES
        Subject Public Key Info:
            Public Key Algorithm: rsaEncryption
            RSA Public Key: (1024 bit)
                Modulus (1024 bit):
                    00:b6:1a:86:56:7f:f6:3d:8e:98:ae:6e:e8:5c:22:
                    35:be:d5:ab:f8:1e:36:d8:fd:f2:ec:ba:aa:ea:29:
                    e3:16:1b:02:30:e7:af:4d:7c:18:35:40:58:f7:bd:
                    e8:7e:90:aa:a7:55:29:31:50:c1:94:7f:c5:ed:ef:
                    34:23:08:be:ef:fb:55:0c:a3:a0:78:82:6a:c1:5f:
                    63:e3:a9:42:4a:fb:ac:7b:02:8a:0c:00:c0:47:42:
                    b9:82:bd:0a:b9:ad:9f:69:d4:de:9a:52:2a:85:a1:
                    20:d8:5a:0d:f5:f3:de:7c:4a:fa:a8:38:46:35:76:
                    f0:34:6b:49:cb:51:98:67:5f
                Exponent: 65537 (0x10001)
        X509v3 extensions:
            X509v3 Basic Constraints: 
                CA:FALSE
            Netscape Comment: 
                SSL Server Certificate
            X509v3 Key Usage: critical
                Digital Signature, Key Encipherment
            X509v3 Extended Key Usage: 
                TLS Web Server Authentication, TLS Web Client Authentication, Microsoft Server Gated Crypto, Netscape Server Gated Crypto
            Netscape Cert Type: 
                SSL Client, SSL Server
            X509v3 Subject Key Identifier: 
                C8:53:39:43:DF:7D:76:70:66:B2:4C:50:FC:AF:2B:4F:92:CB:26:04
            X509v3 Authority Key Identifier: 
                keyid:9B:A1:DB:2B:83:47:1A:F1:A3:27:91:C2:98:4B:77:E8:E8:CE:DD:E4
                DirName:/O=Flumotion Services S.A./O=http://www.flumotion.net/feat/OU=Feat Core Team/CN=Feat Development Root CA/emailAddress=coreteam@flumotion.com/L=Barcelona/ST=Spain/C=ES
                serial:E1:82:F5:0D:36:ED:56:BD

            Authority Information Access: 
                CA Issuers - URI:http://www.flumotion.net/feat/dev_ca/cainfo.html

            X509v3 CRL Distribution Points: 
                URI:http://www.flumotion.net/feat/dev_crl/issuing_ca.crl

            X509v3 Certificate Policies: 
                Policy: Feat-CPS
                  CPS: http://www.flumotion.net/feat/dev_ca/feat_cps.html
                  User Notice:
                    Explicit Text: Flumotion Services S.A. Certification Practice Statement
                Policy: Feat-TLS-WEB-Cert
                  User Notice:
                    Explicit Text: Flumotion Services S.A. Secure Communications Web Server Certificate Policy

    Signature Algorithm: sha1WithRSAEncryption
        1c:7d:26:b4:d8:30:5e:cb:44:35:be:5a:5f:26:60:43:70:9a:
        5c:49:16:03:7d:42:49:12:d9:50:9d:80:0e:5a:40:68:98:2f:
        99:6a:37:0d:66:c0:5f:da:17:fe:70:98:20:39:c6:e1:b5:3b:
        79:aa:e1:b9:75:ef:27:50:11:7d:95:4e:cf:2b:e2:16:9d:fe:
        ed:b8:83:a2:32:3e:40:28:f5:f7:96:8a:a8:a5:73:4a:31:a0:
        a0:8c:a0:e7:44:ed:b7:de:20:50:ab:50:de:b3:d8:b8:4a:71:
        8e:84:5c:1a:52:08:44:26:c4:db:ae:66:6a:51:b3:31:a9:11:
        b4:b3:33:2b:b6:68:c9:e8:05:78:2a:34:1a:71:7e:e9:33:26:
        4e:2a:b4:34:6d:40:63:da:f5:6b:c3:de:6b:d3:d5:d5:28:9b:
        a4:48:43:dc:aa:15:33:d2:fc:2f:ae:aa:72:7d:d9:85:b5:db:
        47:66:41:18:1c:f9:c3:a3:37:24:f9:bd:b4:ff:22:90:61:af:
        f4:9e:5e:33:87:88:bd:a4:08:82:e1:69:51:7b:7c:62:e6:17:
        c2:e9:86:ac:3c:f6:70:d6:ae:72:c7:bd:dc:3a:36:9f:bf:af:
        f0:e0:fe:ff:9f:75:39:a3:6e:c4:7c:72:55:27:6b:6f:dc:93:
        91:16:b2:7c
-----BEGIN CERTIFICATE-----
MIIHADCCBeigAwIBAgIJAJ3JjxoQ8vpoMA0GCSqGSIb3DQEBBQUAMIHfMSAwHgYD
VQQKExdGbHVtb3Rpb24gU2VydmljZXMgUy5BLjEmMCQGA1UEChMdaHR0cDovL3d3
dy5mbHVtb3Rpb24ubmV0L2ZlYXQxFzAVBgNVBAsTDkZlYXQgQ29yZSBUZWFtMSIw
IAYDVQQDExlGZWF0IERldmVsb3BtZW50IFRlc3QxIENBMSUwIwYJKoZIhvcNAQkB
FhZjb3JldGVhbUBmbHVtb3Rpb24uY29tMRIwEAYDVQQHEwlCYXJjZWxvbmExDjAM
BgNVBAgTBVNwYWluMQswCQYDVQQGEwJFUzAeFw0xMTA5MDgxNzM0MjFaFw0xOTA5
MDYxNzM0MjFaMIGsMSAwHgYDVQQKExdGbHVtb3Rpb24gU2VydmljZXMgUy5BLjEm
MCQGA1UEChMdaHR0cDovL3d3dy5mbHVtb3Rpb24ubmV0L2ZlYXQxFzAVBgNVBAsT
DkZlYXQgQ29yZSBUZWFtMRYwFAYDVQQDEw1mbHVtb3Rpb24ubmV0MRIwEAYDVQQH
EwlCYXJjZWxvbmExDjAMBgNVBAgTBVNwYWluMQswCQYDVQQGEwJFUzCBnzANBgkq
hkiG9w0BAQEFAAOBjQAwgYkCgYEAthqGVn/2PY6Yrm7oXCI1vtWr+B422P3y7Lqq
6injFhsCMOevTXwYNUBY973ofpCqp1UpMVDBlH/F7e80Iwi+7/tVDKOgeIJqwV9j
46lCSvusewKKDADAR0K5gr0Kua2fadTemlIqhaEg2FoN9fPefEr6qDhGNXbwNGtJ
y1GYZ18CAwEAAaOCA3IwggNuMAkGA1UdEwQCMAAwJQYJYIZIAYb4QgENBBgWFlNT
TCBTZXJ2ZXIgQ2VydGlmaWNhdGUwDgYDVR0PAQH/BAQDAgWgMDQGA1UdJQQtMCsG
CCsGAQUFBwMBBggrBgEFBQcDAgYKKwYBBAGCNwoDAwYJYIZIAYb4QgQBMBEGCWCG
SAGG+EIBAQQEAwIGwDAdBgNVHQ4EFgQUyFM5Q999dnBmskxQ/K8rT5LLJgQwggEV
BgNVHSMEggEMMIIBCIAUm6HbK4NHGvGjJ5HCmEt36OjO3eShgeSkgeEwgd4xIDAe
BgNVBAoTF0ZsdW1vdGlvbiBTZXJ2aWNlcyBTLkEuMSYwJAYDVQQKEx1odHRwOi8v
d3d3LmZsdW1vdGlvbi5uZXQvZmVhdDEXMBUGA1UECxMORmVhdCBDb3JlIFRlYW0x
ITAfBgNVBAMTGEZlYXQgRGV2ZWxvcG1lbnQgUm9vdCBDQTElMCMGCSqGSIb3DQEJ
ARYWY29yZXRlYW1AZmx1bW90aW9uLmNvbTESMBAGA1UEBxMJQmFyY2Vsb25hMQ4w
DAYDVQQIEwVTcGFpbjELMAkGA1UEBhMCRVOCCQDhgvUNNu1WvTBMBggrBgEFBQcB
AQRAMD4wPAYIKwYBBQUHMAKGMGh0dHA6Ly93d3cuZmx1bW90aW9uLm5ldC9mZWF0
L2Rldl9jYS9jYWluZm8uaHRtbDBFBgNVHR8EPjA8MDqgOKA2hjRodHRwOi8vd3d3
LmZsdW1vdGlvbi5uZXQvZmVhdC9kZXZfY3JsL2lzc3VpbmdfY2EuY3JsMIIBEgYD
VR0gBIIBCTCCAQUwgZcGCisGAQQBgfIkAQEwgYgwPgYIKwYBBQUHAgEWMmh0dHA6
Ly93d3cuZmx1bW90aW9uLm5ldC9mZWF0L2Rldl9jYS9mZWF0X2Nwcy5odG1sMEYG
CCsGAQUFBwICMDoaOEZsdW1vdGlvbiBTZXJ2aWNlcyBTLkEuIENlcnRpZmljYXRp
b24gUHJhY3RpY2UgU3RhdGVtZW50MGkGCisGAQQBgfIkAwIwWzBZBggrBgEFBQcC
AjBNGktGbHVtb3Rpb24gU2VydmljZXMgUy5BLiBTZWN1cmUgQ29tbXVuaWNhdGlv
bnMgV2ViIFNlcnZlciBDZXJ0aWZpY2F0ZSBQb2xpY3kwDQYJKoZIhvcNAQEFBQAD
ggEBABx9JrTYMF7LRDW+Wl8mYENwmlxJFgN9QkkS2VCdgA5aQGiYL5lqNw1mwF/a
F/5wmCA5xuG1O3mq4bl17ydQEX2VTs8r4had/u24g6IyPkAo9feWiqilc0oxoKCM
oOdE7bfeIFCrUN6z2LhKcY6EXBpSCEQmxNuuZmpRszGpEbSzMyu2aMnoBXgqNBpx
fukzJk4qtDRtQGPa9WvD3mvT1dUom6RIQ9yqFTPS/C+uqnJ92YW120dmQRgc+cOj
NyT5vbT/IpBhr/SeXjOHiL2kCILhaVF7fGLmF8Lphqw89nDWrnLHvdw6Np+/r/Dg
/v+fdTmjbsR8clUna2/ck5EWsnw=
-----END CERTIFICATE-----
