Certificate:
    Data:
        Version: 3 (0x2)
        Serial Number:
            9d:c9:8f:1a:10:f2:fa:67
        Signature Algorithm: sha1WithRSAEncryption
        Issuer: O=Flumotion Services S.A., O=http://www.flumotion.net/feat, OU=Feat Core Team, CN=Feat Development Test1 CA/emailAddress=coreteam@flumotion.com, L=Barcelona, ST=Spain, C=ES
        Validity
            Not Before: Sep  8 17:34:09 2011 GMT
            Not After : Sep  6 17:34:09 2019 GMT
        Subject: O=Flumotion Services S.A., O=http://www.flumotion.net/feat, OU=Feat Core Team, CN=localhost, L=Barcelona, ST=Spain, C=ES
        Subject Public Key Info:
            Public Key Algorithm: rsaEncryption
            RSA Public Key: (1024 bit)
                Modulus (1024 bit):
                    00:ac:7c:b2:1a:25:65:98:ad:98:cb:56:be:a4:a8:
                    be:92:08:12:a7:d5:43:7b:a7:55:81:28:f0:21:8d:
                    19:15:ce:7a:62:f2:f4:a2:ce:42:98:98:5f:a5:17:
                    00:66:85:98:76:99:d4:8d:86:36:53:7d:9d:a9:3d:
                    4f:90:64:09:25:1b:61:00:c3:7f:07:e7:75:60:66:
                    8c:72:e0:a1:9a:d5:b6:18:a2:79:95:93:5d:98:ba:
                    30:aa:06:a4:48:86:32:f1:be:87:aa:a5:36:d3:9a:
                    41:fb:1a:eb:2c:77:aa:07:35:ce:2b:f2:95:3e:b5:
                    b1:4f:28:57:eb:f4:7d:2d:11
                Exponent: 65537 (0x10001)
        X509v3 extensions:
            X509v3 Basic Constraints: 
                CA:FALSE
            Netscape Comment: 
                SSL Server Certificate
            X509v3 Key Usage: critical
                Digital Signature, Key Encipherment
            X509v3 Extended Key Usage: 
                TLS Web Server Authentication, TLS Web Client Authentication, Microsoft Server Gated Crypto, Netscape Server Gated Crypto
            Netscape Cert Type: 
                SSL Client, SSL Server
            X509v3 Subject Key Identifier: 
                14:90:9F:FF:71:FE:2B:AC:68:B4:69:E4:AB:DE:84:18:5E:4E:47:4A
            X509v3 Authority Key Identifier: 
                keyid:9B:A1:DB:2B:83:47:1A:F1:A3:27:91:C2:98:4B:77:E8:E8:CE:DD:E4
                DirName:/O=Flumotion Services S.A./O=http://www.flumotion.net/feat/OU=Feat Core Team/CN=Feat Development Root CA/emailAddress=coreteam@flumotion.com/L=Barcelona/ST=Spain/C=ES
                serial:E1:82:F5:0D:36:ED:56:BD

            Authority Information Access: 
                CA Issuers - URI:http://www.flumotion.net/feat/dev_ca/cainfo.html

            X509v3 CRL Distribution Points: 
                URI:http://www.flumotion.net/feat/dev_crl/issuing_ca.crl

            X509v3 Certificate Policies: 
                Policy: Feat-CPS
                  CPS: http://www.flumotion.net/feat/dev_ca/feat_cps.html
                  User Notice:
                    Explicit Text: Flumotion Services S.A. Certification Practice Statement
                Policy: Feat-TLS-WEB-Cert
                  User Notice:
                    Explicit Text: Flumotion Services S.A. Secure Communications Web Server Certificate Policy

    Signature Algorithm: sha1WithRSAEncryption
        2e:db:df:94:7f:89:f9:1a:f8:bf:fe:36:f1:42:c4:5f:d0:f2:
        3e:16:a7:5b:b4:34:93:f8:14:a2:b2:41:65:53:3c:89:32:fc:
        cd:cb:bc:fd:f0:4b:b5:e8:c0:82:58:79:00:d0:96:78:dc:6c:
        82:c9:fc:c3:6c:ae:d5:0d:c9:4a:35:dc:ac:09:ed:57:2a:82:
        da:25:d9:d9:ee:9a:a1:ff:a4:66:ae:40:a5:45:a8:82:1f:d0:
        73:30:64:f7:51:12:1b:7b:aa:64:43:27:91:e0:06:fe:d2:77:
        be:4f:53:be:9d:6e:23:de:5b:97:aa:27:44:e2:c9:9a:71:08:
        d1:ac:13:43:5e:f6:cd:6a:7a:6c:d6:fe:9f:e8:85:61:74:47:
        30:d6:e0:2a:20:28:c3:13:84:84:c0:57:6d:39:f1:0d:3b:e9:
        09:89:31:28:f8:21:10:93:11:15:a7:7f:03:28:ed:b7:26:12:
        0c:77:fd:0c:ba:87:dd:48:91:5c:5a:06:4d:a9:e7:65:58:fd:
        7e:a1:11:fd:5e:18:2c:7c:74:1c:90:4a:b4:ba:e1:42:3d:e5:
        86:ff:f7:c1:ac:69:ba:1a:c5:2c:b1:e2:d3:59:9a:61:35:80:
        b1:18:09:d1:82:2a:eb:d1:95:9b:66:ed:6d:fa:de:01:c9:1d:
        04:c1:53:4c
-----BEGIN CERTIFICATE-----
MIIG/DCCBeSgAwIBAgIJAJ3JjxoQ8vpnMA0GCSqGSIb3DQEBBQUAMIHfMSAwHgYD
VQQKExdGbHVtb3Rpb24gU2VydmljZXMgUy5BLjEmMCQGA1UEChMdaHR0cDovL3d3
dy5mbHVtb3Rpb24ubmV0L2ZlYXQxFzAVBgNVBAsTDkZlYXQgQ29yZSBUZWFtMSIw
IAYDVQQDExlGZWF0IERldmVsb3BtZW50IFRlc3QxIENBMSUwIwYJKoZIhvcNAQkB
FhZjb3JldGVhbUBmbHVtb3Rpb24uY29tMRIwEAYDVQQHEwlCYXJjZWxvbmExDjAM
BgNVBAgTBVNwYWluMQswCQYDVQQGEwJFUzAeFw0xMTA5MDgxNzM0MDlaFw0xOTA5
MDYxNzM0MDlaMIGoMSAwHgYDVQQKExdGbHVtb3Rpb24gU2VydmljZXMgUy5BLjEm
MCQGA1UEChMdaHR0cDovL3d3dy5mbHVtb3Rpb24ubmV0L2ZlYXQxFzAVBgNVBAsT
DkZlYXQgQ29yZSBUZWFtMRIwEAYDVQQDEwlsb2NhbGhvc3QxEjAQBgNVBAcTCUJh
cmNlbG9uYTEOMAwGA1UECBMFU3BhaW4xCzAJBgNVBAYTAkVTMIGfMA0GCSqGSIb3
DQEBAQUAA4GNADCBiQKBgQCsfLIaJWWYrZjLVr6kqL6SCBKn1UN7p1WBKPAhjRkV
znpi8vSizkKYmF+lFwBmhZh2mdSNhjZTfZ2pPU+QZAklG2EAw38H53VgZoxy4KGa
1bYYonmVk12YujCqBqRIhjLxvoeqpTbTmkH7Gussd6oHNc4r8pU+tbFPKFfr9H0t
EQIDAQABo4IDcjCCA24wCQYDVR0TBAIwADAlBglghkgBhvhCAQ0EGBYWU1NMIFNl
cnZlciBDZXJ0aWZpY2F0ZTAOBgNVHQ8BAf8EBAMCBaAwNAYDVR0lBC0wKwYIKwYB
BQUHAwEGCCsGAQUFBwMCBgorBgEEAYI3CgMDBglghkgBhvhCBAEwEQYJYIZIAYb4
QgEBBAQDAgbAMB0GA1UdDgQWBBQUkJ//cf4rrGi0aeSr3oQYXk5HSjCCARUGA1Ud
IwSCAQwwggEIgBSbodsrg0ca8aMnkcKYS3fo6M7d5KGB5KSB4TCB3jEgMB4GA1UE
ChMXRmx1bW90aW9uIFNlcnZpY2VzIFMuQS4xJjAkBgNVBAoTHWh0dHA6Ly93d3cu
Zmx1bW90aW9uLm5ldC9mZWF0MRcwFQYDVQQLEw5GZWF0IENvcmUgVGVhbTEhMB8G
A1UEAxMYRmVhdCBEZXZlbG9wbWVudCBSb290IENBMSUwIwYJKoZIhvcNAQkBFhZj
b3JldGVhbUBmbHVtb3Rpb24uY29tMRIwEAYDVQQHEwlCYXJjZWxvbmExDjAMBgNV
BAgTBVNwYWluMQswCQYDVQQGEwJFU4IJAOGC9Q027Va9MEwGCCsGAQUFBwEBBEAw
PjA8BggrBgEFBQcwAoYwaHR0cDovL3d3dy5mbHVtb3Rpb24ubmV0L2ZlYXQvZGV2
X2NhL2NhaW5mby5odG1sMEUGA1UdHwQ+MDwwOqA4oDaGNGh0dHA6Ly93d3cuZmx1
bW90aW9uLm5ldC9mZWF0L2Rldl9jcmwvaXNzdWluZ19jYS5jcmwwggESBgNVHSAE
ggEJMIIBBTCBlwYKKwYBBAGB8iQBATCBiDA+BggrBgEFBQcCARYyaHR0cDovL3d3
dy5mbHVtb3Rpb24ubmV0L2ZlYXQvZGV2X2NhL2ZlYXRfY3BzLmh0bWwwRgYIKwYB
BQUHAgIwOho4Rmx1bW90aW9uIFNlcnZpY2VzIFMuQS4gQ2VydGlmaWNhdGlvbiBQ
cmFjdGljZSBTdGF0ZW1lbnQwaQYKKwYBBAGB8iQDAjBbMFkGCCsGAQUFBwICME0a
S0ZsdW1vdGlvbiBTZXJ2aWNlcyBTLkEuIFNlY3VyZSBDb21tdW5pY2F0aW9ucyBX
ZWIgU2VydmVyIENlcnRpZmljYXRlIFBvbGljeTANBgkqhkiG9w0BAQUFAAOCAQEA
LtvflH+J+Rr4v/428ULEX9DyPhanW7Q0k/gUorJBZVM8iTL8zcu8/fBLtejAglh5
ANCWeNxsgsn8w2yu1Q3JSjXcrAntVyqC2iXZ2e6aof+kZq5ApUWogh/QczBk91ES
G3uqZEMnkeAG/tJ3vk9Tvp1uI95bl6onROLJmnEI0awTQ172zWp6bNb+n+iFYXRH
MNbgKiAowxOEhMBXbTnxDTvpCYkxKPghEJMRFad/AyjttyYSDHf9DLqH3UiRXFoG
TannZVj9fqER/V4YLHx0HJBKtLrhQj3lhv/3waxpuhrFLLHi01maYTWAsRgJ0YIq
69GVm2btbfreAckdBMFTTA==
-----END CERTIFICATE-----
