Certificate:
    Data:
        Version: 3 (0x2)
        Serial Number:
            9d:c9:8f:1a:10:f2:fa:6a
        Signature Algorithm: sha1WithRSAEncryption
        Issuer: O=Flumotion Services S.A., O=http://www.flumotion.net/feat, OU=Feat Core Team, CN=Feat Development Test1 CA/emailAddress=coreteam@flumotion.com, L=Barcelona, ST=Spain, C=ES
        Validity
            Not Before: Sep  8 17:35:55 2011 GMT
            Not After : Sep  6 17:35:55 2019 GMT
        Subject: O=Flumotion Services S.A., O=http://www.flumotion.net/feat, OU=Feat Core Team, CN=client2 test1/emailAddress=client2@test1.lan, L=Barcelona, ST=Spain, C=ES
        Subject Public Key Info:
            Public Key Algorithm: rsaEncryption
            RSA Public Key: (1024 bit)
                Modulus (1024 bit):
                    00:ea:02:58:6c:1b:d5:b0:d1:ca:be:7c:a9:5e:7e:
                    33:dc:33:1e:c5:15:06:77:ed:96:ee:9a:bf:62:ad:
                    52:ba:18:9b:80:44:cf:c5:20:1a:14:e5:a9:6c:3b:
                    22:29:30:8e:cc:5a:af:c9:de:51:4c:1a:a3:07:f0:
                    6b:63:57:e5:f7:c6:21:d3:31:c1:e4:13:7a:aa:6a:
                    2d:03:ec:fd:e4:57:5f:a9:36:7b:cb:32:99:1b:a9:
                    dc:f4:55:56:36:46:f5:8a:11:39:1e:20:c8:0a:3e:
                    82:25:2e:15:57:2f:e6:a0:96:6e:c6:42:e7:45:51:
                    aa:84:0a:b0:1d:b2:bf:9d:59
                Exponent: 65537 (0x10001)
        X509v3 extensions:
            X509v3 Basic Constraints: 
                CA:FALSE
            Netscape Comment: 
                SSL Client Certificate
            X509v3 Key Usage: 
                Digital Signature, Key Encipherment
            X509v3 Extended Key Usage: 
                TLS Web Client Authentication
            Netscape Cert Type: 
                SSL Client
            X509v3 Subject Key Identifier: 
                F2:E3:D2:3C:FD:5B:67:19:20:8E:5D:DE:41:BA:5A:2E:F6:22:FC:20
            X509v3 Authority Key Identifier: 
                keyid:9B:A1:DB:2B:83:47:1A:F1:A3:27:91:C2:98:4B:77:E8:E8:CE:DD:E4
                DirName:/O=Flumotion Services S.A./O=http://www.flumotion.net/feat/OU=Feat Core Team/CN=Feat Development Root CA/emailAddress=coreteam@flumotion.com/L=Barcelona/ST=Spain/C=ES
                serial:E1:82:F5:0D:36:ED:56:BD

            Authority Information Access: 
                CA Issuers - URI:http://www.flumotion.com/feat/dev_ca/cainfo.html

            X509v3 CRL Distribution Points: 
                URI:http://www.flumotion.com/feat/dev_crl/issuing_ca.crl

            X509v3 Certificate Policies: 
                Policy: Feat-CPS
                  CPS: http://www.flumotion.net/feat/dev_ca/feat_cps.html
                  User Notice:
                    Explicit Text: Flumotion Services S.A. Certification Practice Statement
                Policy: Feat-TLS-WEB-Cert
                  User Notice:
                    Explicit Text: Flumotion Services S.A. Secure Communications Web Server Certificate Policy

    Signature Algorithm: sha1WithRSAEncryption
        14:af:53:b6:5e:ce:02:c3:36:d6:ea:9d:19:90:25:fc:b4:3e:
        63:e5:ca:ea:0e:f4:67:0d:72:93:34:17:bc:04:be:89:c6:82:
        3c:c6:4b:1e:f2:bd:e4:e8:51:9a:17:50:86:e3:80:4f:c2:19:
        ec:ff:ca:e5:04:f1:1b:d8:cf:31:74:ae:b0:9e:82:99:99:8e:
        5c:ff:d4:da:a9:8e:39:19:d4:60:7f:21:d2:3d:bf:66:96:8d:
        13:f6:cb:93:27:dc:e6:f8:5b:85:a7:b8:67:13:d2:ef:d0:56:
        69:ff:f0:09:53:2d:ac:f7:06:a9:d5:a5:c7:5b:56:b3:39:4a:
        0c:29:c0:30:15:11:b4:05:8b:f3:f8:31:17:83:5b:7f:65:c1:
        b7:52:54:e8:ce:8d:51:85:2c:c1:da:b1:89:53:22:fd:a0:4c:
        9d:09:00:24:5a:6a:63:b5:29:a3:bb:28:3e:e1:03:4c:bd:b5:
        92:90:fd:23:a2:25:f5:62:a0:2f:1c:0a:fb:ef:ea:1e:06:c0:
        9e:03:81:b9:2c:10:35:db:d8:fa:fc:e5:8c:8b:6d:8b:af:6e:
        47:49:bf:13:ca:e6:e8:a9:3c:aa:4d:fe:c2:d1:cc:c0:76:51:
        fc:97:87:f5:62:5f:6e:f6:f3:4d:3e:a8:3e:b0:06:e8:70:4b:
        49:c3:e4:b0
-----BEGIN CERTIFICATE-----
MIIG/jCCBeagAwIBAgIJAJ3JjxoQ8vpqMA0GCSqGSIb3DQEBBQUAMIHfMSAwHgYD
VQQKExdGbHVtb3Rpb24gU2VydmljZXMgUy5BLjEmMCQGA1UEChMdaHR0cDovL3d3
dy5mbHVtb3Rpb24ubmV0L2ZlYXQxFzAVBgNVBAsTDkZlYXQgQ29yZSBUZWFtMSIw
IAYDVQQDExlGZWF0IERldmVsb3BtZW50IFRlc3QxIENBMSUwIwYJKoZIhvcNAQkB
FhZjb3JldGVhbUBmbHVtb3Rpb24uY29tMRIwEAYDVQQHEwlCYXJjZWxvbmExDjAM
BgNVBAgTBVNwYWluMQswCQYDVQQGEwJFUzAeFw0xMTA5MDgxNzM1NTVaFw0xOTA5
MDYxNzM1NTVaMIHOMSAwHgYDVQQKExdGbHVtb3Rpb24gU2VydmljZXMgUy5BLjEm
MCQGA1UEChMdaHR0cDovL3d3dy5mbHVtb3Rpb24ubmV0L2ZlYXQxFzAVBgNVBAsT
DkZlYXQgQ29yZSBUZWFtMRYwFAYDVQQDEw1jbGllbnQyIHRlc3QxMSAwHgYJKoZI
hvcNAQkBFhFjbGllbnQyQHRlc3QxLmxhbjESMBAGA1UEBxMJQmFyY2Vsb25hMQ4w
DAYDVQQIEwVTcGFpbjELMAkGA1UEBhMCRVMwgZ8wDQYJKoZIhvcNAQEBBQADgY0A
MIGJAoGBAOoCWGwb1bDRyr58qV5+M9wzHsUVBnftlu6av2KtUroYm4BEz8UgGhTl
qWw7Iikwjsxar8neUUwaowfwa2NX5ffGIdMxweQTeqpqLQPs/eRXX6k2e8symRup
3PRVVjZG9YoROR4gyAo+giUuFVcv5qCWbsZC50VRqoQKsB2yv51ZAgMBAAGjggNO
MIIDSjAJBgNVHRMEAjAAMCUGCWCGSAGG+EIBDQQYFhZTU0wgQ2xpZW50IENlcnRp
ZmljYXRlMAsGA1UdDwQEAwIFoDATBgNVHSUEDDAKBggrBgEFBQcDAjARBglghkgB
hvhCAQEEBAMCB4AwHQYDVR0OBBYEFPLj0jz9W2cZII5d3kG6Wi72IvwgMIIBFQYD
VR0jBIIBDDCCAQiAFJuh2yuDRxrxoyeRwphLd+jozt3koYHkpIHhMIHeMSAwHgYD
VQQKExdGbHVtb3Rpb24gU2VydmljZXMgUy5BLjEmMCQGA1UEChMdaHR0cDovL3d3
dy5mbHVtb3Rpb24ubmV0L2ZlYXQxFzAVBgNVBAsTDkZlYXQgQ29yZSBUZWFtMSEw
HwYDVQQDExhGZWF0IERldmVsb3BtZW50IFJvb3QgQ0ExJTAjBgkqhkiG9w0BCQEW
FmNvcmV0ZWFtQGZsdW1vdGlvbi5jb20xEjAQBgNVBAcTCUJhcmNlbG9uYTEOMAwG
A1UECBMFU3BhaW4xCzAJBgNVBAYTAkVTggkA4YL1DTbtVr0wTAYIKwYBBQUHAQEE
QDA+MDwGCCsGAQUFBzAChjBodHRwOi8vd3d3LmZsdW1vdGlvbi5jb20vZmVhdC9k
ZXZfY2EvY2FpbmZvLmh0bWwwRQYDVR0fBD4wPDA6oDigNoY0aHR0cDovL3d3dy5m
bHVtb3Rpb24uY29tL2ZlYXQvZGV2X2NybC9pc3N1aW5nX2NhLmNybDCCARIGA1Ud
IASCAQkwggEFMIGXBgorBgEEAYHyJAEBMIGIMD4GCCsGAQUFBwIBFjJodHRwOi8v
d3d3LmZsdW1vdGlvbi5uZXQvZmVhdC9kZXZfY2EvZmVhdF9jcHMuaHRtbDBGBggr
BgEFBQcCAjA6GjhGbHVtb3Rpb24gU2VydmljZXMgUy5BLiBDZXJ0aWZpY2F0aW9u
IFByYWN0aWNlIFN0YXRlbWVudDBpBgorBgEEAYHyJAMCMFswWQYIKwYBBQUHAgIw
TRpLRmx1bW90aW9uIFNlcnZpY2VzIFMuQS4gU2VjdXJlIENvbW11bmljYXRpb25z
IFdlYiBTZXJ2ZXIgQ2VydGlmaWNhdGUgUG9saWN5MA0GCSqGSIb3DQEBBQUAA4IB
AQAUr1O2Xs4CwzbW6p0ZkCX8tD5j5crqDvRnDXKTNBe8BL6JxoI8xkse8r3k6FGa
F1CG44BPwhns/8rlBPEb2M8xdK6wnoKZmY5c/9TaqY45GdRgfyHSPb9mlo0T9suT
J9zm+FuFp7hnE9Lv0FZp//AJUy2s9wap1aXHW1azOUoMKcAwFRG0BYvz+DEXg1t/
ZcG3UlTozo1RhSzB2rGJUyL9oEydCQAkWmpjtSmjuyg+4QNMvbWSkP0joiX1YqAv
HAr77+oeBsCeA4G5LBA129j6/OWMi22Lr25HSb8TyuboqTyqTf7C0czAdlH8l4f1
Yl9u9vNNPqg+sAbocEtJw+Sw
-----END CERTIFICATE-----
