Certificate:
    Data:
        Version: 3 (0x2)
        Serial Number:
            ed:22:20:fa:41:23:d3:de
        Signature Algorithm: sha1WithRSAEncryption
        Issuer: O=Flumotion Services S.A., O=http://www.flumotion.net/feat, OU=Feat Core Team, CN=Feat Development Test2 CA/emailAddress=coreteam@flumotion.com, L=Barcelona, ST=Spain, C=ES
        Validity
            Not Before: Sep  8 17:36:52 2011 GMT
            Not After : Sep  6 17:36:52 2019 GMT
        Subject: O=Flumotion Services S.A., O=http://www.flumotion.net/feat, OU=Feat Core Team, CN=client1 test2/emailAddress=client1@test2.lan, L=Barcelona, ST=Spain, C=ES
        Subject Public Key Info:
            Public Key Algorithm: rsaEncryption
            RSA Public Key: (1024 bit)
                Modulus (1024 bit):
                    00:d5:43:48:67:bb:1c:14:07:42:c2:1a:02:14:8b:
                    13:7c:72:e1:97:2a:e8:ed:0a:a9:db:ed:21:8e:86:
                    ad:dd:57:90:9e:ab:3c:5b:f9:6e:68:63:3f:1f:07:
                    63:46:59:71:88:90:c0:b4:14:2a:fc:2d:ba:0e:27:
                    d5:c0:88:c1:4a:36:18:fd:79:57:b5:bc:ee:e7:7c:
                    48:ef:8f:0e:ae:e2:2f:26:d4:5e:a2:27:cd:9b:5e:
                    b5:db:18:82:db:e9:c8:d5:bb:24:0a:11:c7:85:f0:
                    43:94:9c:86:f2:41:87:66:5a:d2:f9:4f:98:9f:16:
                    31:f8:96:2d:2d:c5:ae:af:3b
                Exponent: 65537 (0x10001)
        X509v3 extensions:
            X509v3 Basic Constraints: 
                CA:FALSE
            Netscape Comment: 
                SSL Client Certificate
            X509v3 Key Usage: 
                Digital Signature, Key Encipherment
            X509v3 Extended Key Usage: 
                TLS Web Client Authentication
            Netscape Cert Type: 
                SSL Client
            X509v3 Subject Key Identifier: 
                2A:2E:0E:AA:23:B2:47:69:2F:20:DF:A4:35:12:3E:19:0D:32:72:4F
            X509v3 Authority Key Identifier: 
                keyid:F6:83:5B:E2:C4:18:DF:AC:F0:7A:EB:EE:D4:E1:EE:40:12:07:ED:7C
                DirName:/O=Flumotion Services S.A./O=http://www.flumotion.net/feat/OU=Feat Core Team/CN=Feat Development Root CA/emailAddress=coreteam@flumotion.com/L=Barcelona/ST=Spain/C=ES
                serial:E1:82:F5:0D:36:ED:56:BE

            Authority Information Access: 
                CA Issuers - URI:http://www.flumotion.com/feat/dev_ca/cainfo.html

            X509v3 CRL Distribution Points: 
                URI:http://www.flumotion.com/feat/dev_crl/issuing_ca.crl

            X509v3 Certificate Policies: 
                Policy: Feat-CPS
                  CPS: http://www.flumotion.net/feat/dev_ca/feat_cps.html
                  User Notice:
                    Explicit Text: Flumotion Services S.A. Certification Practice Statement
                Policy: Feat-TLS-WEB-Cert
                  User Notice:
                    Explicit Text: Flumotion Services S.A. Secure Communications Web Server Certificate Policy

    Signature Algorithm: sha1WithRSAEncryption
        09:ce:28:90:4d:9d:ab:5c:48:62:e9:0b:60:99:0b:93:b0:e6:
        69:55:a3:7a:24:88:f2:96:fb:7c:87:1d:c0:91:95:2b:19:23:
        a2:5a:ab:07:3d:3c:68:1a:f4:b4:f5:17:31:ae:ff:a1:cb:d8:
        22:66:54:18:39:73:13:ce:19:38:86:9c:74:13:27:7f:49:b7:
        a0:94:2d:9d:26:69:42:de:ad:ec:5b:f1:f5:12:c4:3e:83:90:
        d6:3c:2f:ae:91:c0:1f:35:cb:c7:26:f8:1a:94:a7:31:64:45:
        ea:7b:9f:f8:0f:29:28:e6:83:e9:ff:f7:f4:da:04:cf:5c:e4:
        1c:32:14:db:f7:82:d9:1e:4e:41:7d:d3:96:4e:0f:b1:43:16:
        db:ae:78:48:17:05:4a:a9:ad:d6:1b:ff:25:5b:a1:47:74:40:
        05:fc:e9:b1:ec:41:58:62:a4:bf:48:0e:f5:fa:d3:69:2d:f9:
        bb:38:d9:92:01:c0:39:f7:0e:2f:5d:15:89:16:51:2d:a5:9c:
        ec:66:49:eb:85:33:a3:12:77:cd:dd:8f:3b:91:09:38:71:17:
        dc:4b:7f:f8:f2:dd:c4:b5:7e:b6:35:76:80:60:fc:ec:f5:c3:
        e4:9e:39:d7:03:b7:b0:3c:cc:d0:62:cd:e3:4f:6a:9b:1a:fb:
        17:d0:a0:d8
-----BEGIN CERTIFICATE-----
MIIG/jCCBeagAwIBAgIJAO0iIPpBI9PeMA0GCSqGSIb3DQEBBQUAMIHfMSAwHgYD
VQQKExdGbHVtb3Rpb24gU2VydmljZXMgUy5BLjEmMCQGA1UEChMdaHR0cDovL3d3
dy5mbHVtb3Rpb24ubmV0L2ZlYXQxFzAVBgNVBAsTDkZlYXQgQ29yZSBUZWFtMSIw
IAYDVQQDExlGZWF0IERldmVsb3BtZW50IFRlc3QyIENBMSUwIwYJKoZIhvcNAQkB
FhZjb3JldGVhbUBmbHVtb3Rpb24uY29tMRIwEAYDVQQHEwlCYXJjZWxvbmExDjAM
BgNVBAgTBVNwYWluMQswCQYDVQQGEwJFUzAeFw0xMTA5MDgxNzM2NTJaFw0xOTA5
MDYxNzM2NTJaMIHOMSAwHgYDVQQKExdGbHVtb3Rpb24gU2VydmljZXMgUy5BLjEm
MCQGA1UEChMdaHR0cDovL3d3dy5mbHVtb3Rpb24ubmV0L2ZlYXQxFzAVBgNVBAsT
DkZlYXQgQ29yZSBUZWFtMRYwFAYDVQQDEw1jbGllbnQxIHRlc3QyMSAwHgYJKoZI
hvcNAQkBFhFjbGllbnQxQHRlc3QyLmxhbjESMBAGA1UEBxMJQmFyY2Vsb25hMQ4w
DAYDVQQIEwVTcGFpbjELMAkGA1UEBhMCRVMwgZ8wDQYJKoZIhvcNAQEBBQADgY0A
MIGJAoGBANVDSGe7HBQHQsIaAhSLE3xy4Zcq6O0KqdvtIY6Grd1XkJ6rPFv5bmhj
Px8HY0ZZcYiQwLQUKvwtug4n1cCIwUo2GP15V7W87ud8SO+PDq7iLybUXqInzZte
tdsYgtvpyNW7JAoRx4XwQ5SchvJBh2Za0vlPmJ8WMfiWLS3Frq87AgMBAAGjggNO
MIIDSjAJBgNVHRMEAjAAMCUGCWCGSAGG+EIBDQQYFhZTU0wgQ2xpZW50IENlcnRp
ZmljYXRlMAsGA1UdDwQEAwIFoDATBgNVHSUEDDAKBggrBgEFBQcDAjARBglghkgB
hvhCAQEEBAMCB4AwHQYDVR0OBBYEFCouDqojskdpLyDfpDUSPhkNMnJPMIIBFQYD
VR0jBIIBDDCCAQiAFPaDW+LEGN+s8Hrr7tTh7kASB+18oYHkpIHhMIHeMSAwHgYD
VQQKExdGbHVtb3Rpb24gU2VydmljZXMgUy5BLjEmMCQGA1UEChMdaHR0cDovL3d3
dy5mbHVtb3Rpb24ubmV0L2ZlYXQxFzAVBgNVBAsTDkZlYXQgQ29yZSBUZWFtMSEw
HwYDVQQDExhGZWF0IERldmVsb3BtZW50IFJvb3QgQ0ExJTAjBgkqhkiG9w0BCQEW
FmNvcmV0ZWFtQGZsdW1vdGlvbi5jb20xEjAQBgNVBAcTCUJhcmNlbG9uYTEOMAwG
A1UECBMFU3BhaW4xCzAJBgNVBAYTAkVTggkA4YL1DTbtVr4wTAYIKwYBBQUHAQEE
QDA+MDwGCCsGAQUFBzAChjBodHRwOi8vd3d3LmZsdW1vdGlvbi5jb20vZmVhdC9k
ZXZfY2EvY2FpbmZvLmh0bWwwRQYDVR0fBD4wPDA6oDigNoY0aHR0cDovL3d3dy5m
bHVtb3Rpb24uY29tL2ZlYXQvZGV2X2NybC9pc3N1aW5nX2NhLmNybDCCARIGA1Ud
IASCAQkwggEFMIGXBgorBgEEAYHyJAEBMIGIMD4GCCsGAQUFBwIBFjJodHRwOi8v
d3d3LmZsdW1vdGlvbi5uZXQvZmVhdC9kZXZfY2EvZmVhdF9jcHMuaHRtbDBGBggr
BgEFBQcCAjA6GjhGbHVtb3Rpb24gU2VydmljZXMgUy5BLiBDZXJ0aWZpY2F0aW9u
IFByYWN0aWNlIFN0YXRlbWVudDBpBgorBgEEAYHyJAMCMFswWQYIKwYBBQUHAgIw
TRpLRmx1bW90aW9uIFNlcnZpY2VzIFMuQS4gU2VjdXJlIENvbW11bmljYXRpb25z
IFdlYiBTZXJ2ZXIgQ2VydGlmaWNhdGUgUG9saWN5MA0GCSqGSIb3DQEBBQUAA4IB
AQAJziiQTZ2rXEhi6QtgmQuTsOZpVaN6JIjylvt8hx3AkZUrGSOiWqsHPTxoGvS0
9Rcxrv+hy9giZlQYOXMTzhk4hpx0Eyd/SbeglC2dJmlC3q3sW/H1EsQ+g5DWPC+u
kcAfNcvHJvgalKcxZEXqe5/4Dyko5oPp//f02gTPXOQcMhTb94LZHk5BfdOWTg+x
QxbbrnhIFwVKqa3WG/8lW6FHdEAF/Omx7EFYYqS/SA71+tNpLfm7ONmSAcA59w4v
XRWJFlEtpZzsZknrhTOjEnfN3Y87kQk4cRfcS3/48t3EtX62NXaAYPzs9cPknjnX
A7ewPMzQYs3jT2qbGvsX0KDY
-----END CERTIFICATE-----
