Certificate:
    Data:
        Version: 3 (0x2)
        Serial Number:
            ed:22:20:fa:41:23:d3:df
        Signature Algorithm: sha1WithRSAEncryption
        Issuer: O=Flumotion Services S.A., O=http://www.flumotion.net/feat, OU=Feat Core Team, CN=Feat Development Test2 CA/emailAddress=coreteam@flumotion.com, L=Barcelona, ST=Spain, C=ES
        Validity
            Not Before: Sep  8 17:37:06 2011 GMT
            Not After : Sep  6 17:37:06 2019 GMT
        Subject: O=Flumotion Services S.A., O=http://www.flumotion.net/feat, OU=Feat Core Team, CN=client2 test2/emailAddress=client2@test2.lan, L=Barcelona, ST=Spain, C=ES
        Subject Public Key Info:
            Public Key Algorithm: rsaEncryption
            RSA Public Key: (1024 bit)
                Modulus (1024 bit):
                    00:c4:2c:d7:e1:52:e1:e5:de:f5:52:26:1b:2e:1a:
                    42:f6:c8:bd:f5:c5:66:2d:00:d3:4a:79:26:07:8f:
                    45:a0:68:95:86:ab:f1:dc:ea:3e:a5:a6:0c:fa:58:
                    5a:34:32:b2:f7:bb:57:ac:bf:c8:98:0f:d1:cd:e9:
                    e2:54:ba:9a:2a:47:ce:6b:5c:9c:dc:f0:c8:93:a9:
                    d7:4a:06:86:c9:01:e0:81:82:ee:37:ba:01:3b:a0:
                    5f:27:26:1e:70:23:35:8e:18:64:17:46:7a:6b:55:
                    03:28:be:34:2c:57:44:ab:a2:a5:b6:9d:b9:f8:87:
                    d8:58:d0:a1:47:69:7c:67:2d
                Exponent: 65537 (0x10001)
        X509v3 extensions:
            X509v3 Basic Constraints: 
                CA:FALSE
            Netscape Comment: 
                SSL Client Certificate
            X509v3 Key Usage: 
                Digital Signature, Key Encipherment
            X509v3 Extended Key Usage: 
                TLS Web Client Authentication
            Netscape Cert Type: 
                SSL Client
            X509v3 Subject Key Identifier: 
                0A:60:9E:D8:8B:FE:B6:0C:D8:20:25:2D:E2:E8:73:FE:DF:BE:99:37
            X509v3 Authority Key Identifier: 
                keyid:F6:83:5B:E2:C4:18:DF:AC:F0:7A:EB:EE:D4:E1:EE:40:12:07:ED:7C
                DirName:/O=Flumotion Services S.A./O=http://www.flumotion.net/feat/OU=Feat Core Team/CN=Feat Development Root CA/emailAddress=coreteam@flumotion.com/L=Barcelona/ST=Spain/C=ES
                serial:E1:82:F5:0D:36:ED:56:BE

            Authority Information Access: 
                CA Issuers - URI:http://www.flumotion.com/feat/dev_ca/cainfo.html

            X509v3 CRL Distribution Points: 
                URI:http://www.flumotion.com/feat/dev_crl/issuing_ca.crl

            X509v3 Certificate Policies: 
                Policy: Feat-CPS
                  CPS: http://www.flumotion.net/feat/dev_ca/feat_cps.html
                  User Notice:
                    Explicit Text: Flumotion Services S.A. Certification Practice Statement
                Policy: Feat-TLS-WEB-Cert
                  User Notice:
                    Explicit Text: Flumotion Services S.A. Secure Communications Web Server Certificate Policy

    Signature Algorithm: sha1WithRSAEncryption
        98:30:c0:be:97:33:e9:4c:4e:dd:a2:4d:de:14:34:e9:54:bd:
        47:fc:8e:ed:24:79:fd:cd:af:02:38:74:be:f3:4c:e3:78:ec:
        74:17:d6:a8:ec:70:64:bf:3a:56:11:52:74:cd:d8:7e:3c:bf:
        c2:8a:c2:af:81:4f:e9:aa:21:77:5b:4d:41:8d:08:10:df:6f:
        9a:2f:92:dc:0a:a3:14:4e:e2:f8:ef:50:a0:88:ae:74:7c:89:
        c5:51:ed:3c:41:72:3b:c5:82:4b:8d:4a:a8:da:c9:63:ee:b0:
        b7:1d:13:fc:e0:09:8a:53:5f:24:7a:7c:53:14:30:ff:d8:19:
        0a:47:2e:8d:ba:32:7a:19:62:1f:f8:f8:ea:ec:26:56:39:31:
        62:a7:45:f6:db:1f:06:11:98:e8:8e:e6:fd:80:8d:77:53:a5:
        af:93:f4:96:4a:77:a5:91:93:29:e7:69:ef:97:01:02:24:73:
        8d:cd:32:63:43:0c:f7:94:ac:41:d4:32:6c:be:b6:8b:08:7c:
        80:53:65:c5:2a:aa:4b:e8:14:d7:77:5e:c8:d3:61:af:03:ee:
        e2:66:44:c7:56:9e:40:09:8f:ae:0a:91:7b:e7:18:d3:eb:75:
        be:ad:39:90:a1:f8:08:c6:99:39:af:b2:08:0a:b3:cb:45:3d:
        7d:33:99:55
-----BEGIN CERTIFICATE-----
MIIG/jCCBeagAwIBAgIJAO0iIPpBI9PfMA0GCSqGSIb3DQEBBQUAMIHfMSAwHgYD
VQQKExdGbHVtb3Rpb24gU2VydmljZXMgUy5BLjEmMCQGA1UEChMdaHR0cDovL3d3
dy5mbHVtb3Rpb24ubmV0L2ZlYXQxFzAVBgNVBAsTDkZlYXQgQ29yZSBUZWFtMSIw
IAYDVQQDExlGZWF0IERldmVsb3BtZW50IFRlc3QyIENBMSUwIwYJKoZIhvcNAQkB
FhZjb3JldGVhbUBmbHVtb3Rpb24uY29tMRIwEAYDVQQHEwlCYXJjZWxvbmExDjAM
BgNVBAgTBVNwYWluMQswCQYDVQQGEwJFUzAeFw0xMTA5MDgxNzM3MDZaFw0xOTA5
MDYxNzM3MDZaMIHOMSAwHgYDVQQKExdGbHVtb3Rpb24gU2VydmljZXMgUy5BLjEm
MCQGA1UEChMdaHR0cDovL3d3dy5mbHVtb3Rpb24ubmV0L2ZlYXQxFzAVBgNVBAsT
DkZlYXQgQ29yZSBUZWFtMRYwFAYDVQQDEw1jbGllbnQyIHRlc3QyMSAwHgYJKoZI
hvcNAQkBFhFjbGllbnQyQHRlc3QyLmxhbjESMBAGA1UEBxMJQmFyY2Vsb25hMQ4w
DAYDVQQIEwVTcGFpbjELMAkGA1UEBhMCRVMwgZ8wDQYJKoZIhvcNAQEBBQADgY0A
MIGJAoGBAMQs1+FS4eXe9VImGy4aQvbIvfXFZi0A00p5JgePRaBolYar8dzqPqWm
DPpYWjQysve7V6y/yJgP0c3p4lS6mipHzmtcnNzwyJOp10oGhskB4IGC7je6ATug
XycmHnAjNY4YZBdGemtVAyi+NCxXRKuipbadufiH2FjQoUdpfGctAgMBAAGjggNO
MIIDSjAJBgNVHRMEAjAAMCUGCWCGSAGG+EIBDQQYFhZTU0wgQ2xpZW50IENlcnRp
ZmljYXRlMAsGA1UdDwQEAwIFoDATBgNVHSUEDDAKBggrBgEFBQcDAjARBglghkgB
hvhCAQEEBAMCB4AwHQYDVR0OBBYEFApgntiL/rYM2CAlLeLoc/7fvpk3MIIBFQYD
VR0jBIIBDDCCAQiAFPaDW+LEGN+s8Hrr7tTh7kASB+18oYHkpIHhMIHeMSAwHgYD
VQQKExdGbHVtb3Rpb24gU2VydmljZXMgUy5BLjEmMCQGA1UEChMdaHR0cDovL3d3
dy5mbHVtb3Rpb24ubmV0L2ZlYXQxFzAVBgNVBAsTDkZlYXQgQ29yZSBUZWFtMSEw
HwYDVQQDExhGZWF0IERldmVsb3BtZW50IFJvb3QgQ0ExJTAjBgkqhkiG9w0BCQEW
FmNvcmV0ZWFtQGZsdW1vdGlvbi5jb20xEjAQBgNVBAcTCUJhcmNlbG9uYTEOMAwG
A1UECBMFU3BhaW4xCzAJBgNVBAYTAkVTggkA4YL1DTbtVr4wTAYIKwYBBQUHAQEE
QDA+MDwGCCsGAQUFBzAChjBodHRwOi8vd3d3LmZsdW1vdGlvbi5jb20vZmVhdC9k
ZXZfY2EvY2FpbmZvLmh0bWwwRQYDVR0fBD4wPDA6oDigNoY0aHR0cDovL3d3dy5m
bHVtb3Rpb24uY29tL2ZlYXQvZGV2X2NybC9pc3N1aW5nX2NhLmNybDCCARIGA1Ud
IASCAQkwggEFMIGXBgorBgEEAYHyJAEBMIGIMD4GCCsGAQUFBwIBFjJodHRwOi8v
d3d3LmZsdW1vdGlvbi5uZXQvZmVhdC9kZXZfY2EvZmVhdF9jcHMuaHRtbDBGBggr
BgEFBQcCAjA6GjhGbHVtb3Rpb24gU2VydmljZXMgUy5BLiBDZXJ0aWZpY2F0aW9u
IFByYWN0aWNlIFN0YXRlbWVudDBpBgorBgEEAYHyJAMCMFswWQYIKwYBBQUHAgIw
TRpLRmx1bW90aW9uIFNlcnZpY2VzIFMuQS4gU2VjdXJlIENvbW11bmljYXRpb25z
IFdlYiBTZXJ2ZXIgQ2VydGlmaWNhdGUgUG9saWN5MA0GCSqGSIb3DQEBBQUAA4IB
AQCYMMC+lzPpTE7dok3eFDTpVL1H/I7tJHn9za8COHS+80zjeOx0F9ao7HBkvzpW
EVJ0zdh+PL/CisKvgU/pqiF3W01BjQgQ32+aL5LcCqMUTuL471CgiK50fInFUe08
QXI7xYJLjUqo2slj7rC3HRP84AmKU18kenxTFDD/2BkKRy6NujJ6GWIf+Pjq7CZW
OTFip0X22x8GEZjojub9gI13U6Wvk/SWSnelkZMp52nvlwECJHONzTJjQwz3lKxB
1DJsvraLCHyAU2XFKqpL6BTXd17I02GvA+7iZkTHVp5ACY+uCpF75xjT63W+rTmQ
ofgIxpk5r7IICrPLRT19M5lV
-----END CERTIFICATE-----
