Certificate:
    Data:
        Version: 3 (0x2)
        Serial Number:
            ed:22:20:fa:41:23:d3:dc
        Signature Algorithm: sha1WithRSAEncryption
        Issuer: O=Flumotion Services S.A., O=http://www.flumotion.net/feat, OU=Feat Core Team, CN=Feat Development Test2 CA/emailAddress=coreteam@flumotion.com, L=Barcelona, ST=Spain, C=ES
        Validity
            Not Before: Sep  8 17:36:09 2011 GMT
            Not After : Sep  6 17:36:09 2019 GMT
        Subject: O=Flumotion Services S.A., O=http://www.flumotion.net/feat, OU=Feat Core Team, CN=localhost, L=Barcelona, ST=Spain, C=ES
        Subject Public Key Info:
            Public Key Algorithm: rsaEncryption
            RSA Public Key: (1024 bit)
                Modulus (1024 bit):
                    00:bb:95:e8:e8:b7:cb:3b:65:ff:82:61:42:70:b8:
                    84:76:18:92:c3:8a:bb:09:41:8b:b1:1b:c6:08:a2:
                    84:21:60:56:f0:92:62:ab:77:0f:26:cd:19:10:c5:
                    e4:2f:4d:fa:07:0c:a3:a5:9e:c5:3b:7b:58:25:ff:
                    27:9b:8f:a8:6b:66:ab:2a:38:81:8a:3f:42:b3:f1:
                    ec:b4:8b:f2:24:8f:2e:f1:4f:95:25:fb:bb:d3:fa:
                    94:88:85:89:ef:31:f0:62:53:73:33:dd:e5:d6:f0:
                    82:b5:3c:b7:77:9f:c4:f9:29:22:48:62:25:5f:df:
                    45:b9:b3:7c:5c:e1:49:6b:a5
                Exponent: 65537 (0x10001)
        X509v3 extensions:
            X509v3 Basic Constraints: 
                CA:FALSE
            Netscape Comment: 
                SSL Server Certificate
            X509v3 Key Usage: critical
                Digital Signature, Key Encipherment
            X509v3 Extended Key Usage: 
                TLS Web Server Authentication, TLS Web Client Authentication, Microsoft Server Gated Crypto, Netscape Server Gated Crypto
            Netscape Cert Type: 
                SSL Client, SSL Server
            X509v3 Subject Key Identifier: 
                7D:99:39:BC:64:E2:70:1A:3D:86:60:60:86:B0:78:80:51:65:7C:86
            X509v3 Authority Key Identifier: 
                keyid:F6:83:5B:E2:C4:18:DF:AC:F0:7A:EB:EE:D4:E1:EE:40:12:07:ED:7C
                DirName:/O=Flumotion Services S.A./O=http://www.flumotion.net/feat/OU=Feat Core Team/CN=Feat Development Root CA/emailAddress=coreteam@flumotion.com/L=Barcelona/ST=Spain/C=ES
                serial:E1:82:F5:0D:36:ED:56:BE

            Authority Information Access: 
                CA Issuers - URI:http://www.flumotion.net/feat/dev_ca/cainfo.html

            X509v3 CRL Distribution Points: 
                URI:http://www.flumotion.net/feat/dev_crl/issuing_ca.crl

            X509v3 Certificate Policies: 
                Policy: Feat-CPS
                  CPS: http://www.flumotion.net/feat/dev_ca/feat_cps.html
                  User Notice:
                    Explicit Text: Flumotion Services S.A. Certification Practice Statement
                Policy: Feat-TLS-WEB-Cert
                  User Notice:
                    Explicit Text: Flumotion Services S.A. Secure Communications Web Server Certificate Policy

    Signature Algorithm: sha1WithRSAEncryption
        1f:81:6a:23:c3:0e:58:b1:64:49:9d:0e:07:10:e0:05:fa:0e:
        9c:07:bd:a6:62:97:3e:67:07:19:0b:97:4a:cb:12:ee:61:7a:
        09:cc:30:c0:56:cb:00:05:47:cc:8c:07:27:0e:e1:87:10:d0:
        03:f7:b4:fd:9d:f1:11:7f:61:60:b7:b3:c7:27:21:56:8c:df:
        39:30:6e:a4:04:c5:8c:70:c1:95:21:ad:70:8a:a6:68:19:40:
        ca:fb:9b:5b:4d:fa:ff:46:c4:bc:64:4f:df:b0:df:11:f9:63:
        f2:05:7e:30:75:15:ea:4a:54:73:8d:18:22:85:4b:23:7c:cd:
        46:fe:2c:60:0e:ae:0f:ac:7d:38:26:de:a0:b8:6f:30:bc:e9:
        95:10:b7:45:d3:ba:72:ae:fe:34:39:d4:58:bc:89:d4:de:2d:
        00:32:e9:c6:57:75:30:6d:e3:1e:df:1a:2d:1c:01:bd:e4:18:
        67:08:a9:4e:d1:72:24:59:93:b3:5e:4d:1f:6f:1f:19:97:a9:
        55:a3:4b:3f:1c:94:e6:a9:b5:50:75:c3:29:4f:54:f8:66:8f:
        4b:ea:8a:b4:1c:33:a5:47:5b:00:f1:cc:36:b4:32:e1:8d:10:
        c8:0d:fa:1f:29:d5:0b:23:68:bc:b5:04:2a:31:ea:ff:63:27:
        5e:36:c9:d7
-----BEGIN CERTIFICATE-----
MIIG/DCCBeSgAwIBAgIJAO0iIPpBI9PcMA0GCSqGSIb3DQEBBQUAMIHfMSAwHgYD
VQQKExdGbHVtb3Rpb24gU2VydmljZXMgUy5BLjEmMCQGA1UEChMdaHR0cDovL3d3
dy5mbHVtb3Rpb24ubmV0L2ZlYXQxFzAVBgNVBAsTDkZlYXQgQ29yZSBUZWFtMSIw
IAYDVQQDExlGZWF0IERldmVsb3BtZW50IFRlc3QyIENBMSUwIwYJKoZIhvcNAQkB
FhZjb3JldGVhbUBmbHVtb3Rpb24uY29tMRIwEAYDVQQHEwlCYXJjZWxvbmExDjAM
BgNVBAgTBVNwYWluMQswCQYDVQQGEwJFUzAeFw0xMTA5MDgxNzM2MDlaFw0xOTA5
MDYxNzM2MDlaMIGoMSAwHgYDVQQKExdGbHVtb3Rpb24gU2VydmljZXMgUy5BLjEm
MCQGA1UEChMdaHR0cDovL3d3dy5mbHVtb3Rpb24ubmV0L2ZlYXQxFzAVBgNVBAsT
DkZlYXQgQ29yZSBUZWFtMRIwEAYDVQQDEwlsb2NhbGhvc3QxEjAQBgNVBAcTCUJh
cmNlbG9uYTEOMAwGA1UECBMFU3BhaW4xCzAJBgNVBAYTAkVTMIGfMA0GCSqGSIb3
DQEBAQUAA4GNADCBiQKBgQC7lejot8s7Zf+CYUJwuIR2GJLDirsJQYuxG8YIooQh
YFbwkmKrdw8mzRkQxeQvTfoHDKOlnsU7e1gl/yebj6hrZqsqOIGKP0Kz8ey0i/Ik
jy7xT5Ul+7vT+pSIhYnvMfBiU3Mz3eXW8IK1PLd3n8T5KSJIYiVf30W5s3xc4Ulr
pQIDAQABo4IDcjCCA24wCQYDVR0TBAIwADAlBglghkgBhvhCAQ0EGBYWU1NMIFNl
cnZlciBDZXJ0aWZpY2F0ZTAOBgNVHQ8BAf8EBAMCBaAwNAYDVR0lBC0wKwYIKwYB
BQUHAwEGCCsGAQUFBwMCBgorBgEEAYI3CgMDBglghkgBhvhCBAEwEQYJYIZIAYb4
QgEBBAQDAgbAMB0GA1UdDgQWBBR9mTm8ZOJwGj2GYGCGsHiAUWV8hjCCARUGA1Ud
IwSCAQwwggEIgBT2g1vixBjfrPB66+7U4e5AEgftfKGB5KSB4TCB3jEgMB4GA1UE
ChMXRmx1bW90aW9uIFNlcnZpY2VzIFMuQS4xJjAkBgNVBAoTHWh0dHA6Ly93d3cu
Zmx1bW90aW9uLm5ldC9mZWF0MRcwFQYDVQQLEw5GZWF0IENvcmUgVGVhbTEhMB8G
A1UEAxMYRmVhdCBEZXZlbG9wbWVudCBSb290IENBMSUwIwYJKoZIhvcNAQkBFhZj
b3JldGVhbUBmbHVtb3Rpb24uY29tMRIwEAYDVQQHEwlCYXJjZWxvbmExDjAMBgNV
BAgTBVNwYWluMQswCQYDVQQGEwJFU4IJAOGC9Q027Va+MEwGCCsGAQUFBwEBBEAw
PjA8BggrBgEFBQcwAoYwaHR0cDovL3d3dy5mbHVtb3Rpb24ubmV0L2ZlYXQvZGV2
X2NhL2NhaW5mby5odG1sMEUGA1UdHwQ+MDwwOqA4oDaGNGh0dHA6Ly93d3cuZmx1
bW90aW9uLm5ldC9mZWF0L2Rldl9jcmwvaXNzdWluZ19jYS5jcmwwggESBgNVHSAE
ggEJMIIBBTCBlwYKKwYBBAGB8iQBATCBiDA+BggrBgEFBQcCARYyaHR0cDovL3d3
dy5mbHVtb3Rpb24ubmV0L2ZlYXQvZGV2X2NhL2ZlYXRfY3BzLmh0bWwwRgYIKwYB
BQUHAgIwOho4Rmx1bW90aW9uIFNlcnZpY2VzIFMuQS4gQ2VydGlmaWNhdGlvbiBQ
cmFjdGljZSBTdGF0ZW1lbnQwaQYKKwYBBAGB8iQDAjBbMFkGCCsGAQUFBwICME0a
S0ZsdW1vdGlvbiBTZXJ2aWNlcyBTLkEuIFNlY3VyZSBDb21tdW5pY2F0aW9ucyBX
ZWIgU2VydmVyIENlcnRpZmljYXRlIFBvbGljeTANBgkqhkiG9w0BAQUFAAOCAQEA
H4FqI8MOWLFkSZ0OBxDgBfoOnAe9pmKXPmcHGQuXSssS7mF6CcwwwFbLAAVHzIwH
Jw7hhxDQA/e0/Z3xEX9hYLezxychVozfOTBupATFjHDBlSGtcIqmaBlAyvubW036
/0bEvGRP37DfEflj8gV+MHUV6kpUc40YIoVLI3zNRv4sYA6uD6x9OCbeoLhvMLzp
lRC3RdO6cq7+NDnUWLyJ1N4tADLpxld1MG3jHt8aLRwBveQYZwipTtFyJFmTs15N
H28fGZepVaNLPxyU5qm1UHXDKU9U+GaPS+qKtBwzpUdbAPHMNrQy4Y0QyA36HynV
CyNovLUEKjHq/2MnXjbJ1w==
-----END CERTIFICATE-----
