Certificate:
    Data:
        Version: 3 (0x2)
        Serial Number:
            ed:22:20:fa:41:23:d3:dd
        Signature Algorithm: sha1WithRSAEncryption
        Issuer: O=Flumotion Services S.A., O=http://www.flumotion.net/feat, OU=Feat Core Team, CN=Feat Development Test2 CA/emailAddress=coreteam@flumotion.com, L=Barcelona, ST=Spain, C=ES
        Validity
            Not Before: Sep  8 17:36:39 2011 GMT
            Not After : Sep  6 17:36:39 2019 GMT
        Subject: O=Flumotion Services S.A., O=http://www.flumotion.net/feat, OU=Feat Core Team, CN=flumotion.net, L=Barcelona, ST=Spain, C=ES
        Subject Public Key Info:
            Public Key Algorithm: rsaEncryption
            RSA Public Key: (1024 bit)
                Modulus (1024 bit):
                    00:ab:25:47:56:c1:0d:83:19:1b:be:40:87:e9:ca:
                    da:a3:4c:ad:20:34:24:67:b0:65:6c:93:04:e0:e0:
                    70:d2:99:38:04:b0:a4:47:4a:e2:a1:2b:20:fe:91:
                    4c:be:6f:4c:7b:ce:07:f5:8a:e4:c2:55:af:3f:4e:
                    de:0c:08:19:a3:12:79:3b:c3:ad:c0:bd:ca:d9:00:
                    c2:53:40:d2:27:1a:06:14:b8:4d:87:84:13:47:f1:
                    98:7f:9e:a2:6e:5e:93:6e:57:af:44:fd:18:78:f2:
                    4c:35:a1:8d:f8:0c:1a:c1:80:bd:12:88:06:df:3e:
                    72:0e:13:29:46:86:05:3f:bd
                Exponent: 65537 (0x10001)
        X509v3 extensions:
            X509v3 Basic Constraints: 
                CA:FALSE
            Netscape Comment: 
                SSL Server Certificate
            X509v3 Key Usage: critical
                Digital Signature, Key Encipherment
            X509v3 Extended Key Usage: 
                TLS Web Server Authentication, TLS Web Client Authentication, Microsoft Server Gated Crypto, Netscape Server Gated Crypto
            Netscape Cert Type: 
                SSL Client, SSL Server
            X509v3 Subject Key Identifier: 
                7B:3A:18:32:3F:85:EF:9F:17:7D:28:EB:96:CB:C1:8F:29:2D:DC:5B
            X509v3 Authority Key Identifier: 
                keyid:F6:83:5B:E2:C4:18:DF:AC:F0:7A:EB:EE:D4:E1:EE:40:12:07:ED:7C
                DirName:/O=Flumotion Services S.A./O=http://www.flumotion.net/feat/OU=Feat Core Team/CN=Feat Development Root CA/emailAddress=coreteam@flumotion.com/L=Barcelona/ST=Spain/C=ES
                serial:E1:82:F5:0D:36:ED:56:BE

            Authority Information Access: 
                CA Issuers - URI:http://www.flumotion.net/feat/dev_ca/cainfo.html

            X509v3 CRL Distribution Points: 
                URI:http://www.flumotion.net/feat/dev_crl/issuing_ca.crl

            X509v3 Certificate Policies: 
                Policy: Feat-CPS
                  CPS: http://www.flumotion.net/feat/dev_ca/feat_cps.html
                  User Notice:
                    Explicit Text: Flumotion Services S.A. Certification Practice Statement
                Policy: Feat-TLS-WEB-Cert
                  User Notice:
                    Explicit Text: Flumotion Services S.A. Secure Communications Web Server Certificate Policy

    Signature Algorithm: sha1WithRSAEncryption
        48:79:10:a9:92:f5:41:fb:bd:b9:03:12:a5:c8:a6:ee:91:b0:
        0c:7b:e2:9a:40:e2:e4:78:77:1e:7b:88:98:70:86:57:02:b1:
        a2:c7:03:c8:3b:51:94:fa:6c:b6:37:dd:1d:8f:78:ca:95:1a:
        76:1a:c3:6c:e7:e5:33:f7:ad:96:7d:4f:39:e6:3d:ae:52:88:
        fd:ce:80:b9:e0:95:5c:67:85:7f:37:8e:1c:20:fe:51:2b:3b:
        04:42:0b:ba:1b:7a:eb:0b:4d:19:cd:d7:e5:e4:60:b6:f0:71:
        6f:01:c4:f3:74:ee:a8:4a:00:da:37:44:f8:a7:73:2d:eb:0d:
        33:2f:2f:cd:12:43:15:da:ab:a0:cd:e1:aa:d4:9f:c9:c7:b6:
        8e:ee:56:6a:28:d6:4a:08:08:78:3d:ac:da:2d:99:43:bf:0b:
        68:32:21:f1:70:4f:7d:43:9f:19:c5:ac:e3:4c:82:67:87:15:
        d5:2a:50:52:14:74:01:2c:64:e9:a4:c4:05:9a:c2:c9:68:94:
        d1:8e:a8:1f:c7:c0:e1:ae:84:1f:f3:1e:44:5f:34:0b:71:06:
        46:f4:c8:84:c3:db:79:bb:2e:bf:dc:e2:62:da:7d:89:be:56:
        cd:b9:52:b8:58:7c:11:7e:9b:05:b8:29:15:7f:01:c9:62:23:
        e1:e6:86:bb
-----BEGIN CERTIFICATE-----
MIIHADCCBeigAwIBAgIJAO0iIPpBI9PdMA0GCSqGSIb3DQEBBQUAMIHfMSAwHgYD
VQQKExdGbHVtb3Rpb24gU2VydmljZXMgUy5BLjEmMCQGA1UEChMdaHR0cDovL3d3
dy5mbHVtb3Rpb24ubmV0L2ZlYXQxFzAVBgNVBAsTDkZlYXQgQ29yZSBUZWFtMSIw
IAYDVQQDExlGZWF0IERldmVsb3BtZW50IFRlc3QyIENBMSUwIwYJKoZIhvcNAQkB
FhZjb3JldGVhbUBmbHVtb3Rpb24uY29tMRIwEAYDVQQHEwlCYXJjZWxvbmExDjAM
BgNVBAgTBVNwYWluMQswCQYDVQQGEwJFUzAeFw0xMTA5MDgxNzM2MzlaFw0xOTA5
MDYxNzM2MzlaMIGsMSAwHgYDVQQKExdGbHVtb3Rpb24gU2VydmljZXMgUy5BLjEm
MCQGA1UEChMdaHR0cDovL3d3dy5mbHVtb3Rpb24ubmV0L2ZlYXQxFzAVBgNVBAsT
DkZlYXQgQ29yZSBUZWFtMRYwFAYDVQQDEw1mbHVtb3Rpb24ubmV0MRIwEAYDVQQH
EwlCYXJjZWxvbmExDjAMBgNVBAgTBVNwYWluMQswCQYDVQQGEwJFUzCBnzANBgkq
hkiG9w0BAQEFAAOBjQAwgYkCgYEAqyVHVsENgxkbvkCH6crao0ytIDQkZ7BlbJME
4OBw0pk4BLCkR0rioSsg/pFMvm9Me84H9YrkwlWvP07eDAgZoxJ5O8OtwL3K2QDC
U0DSJxoGFLhNh4QTR/GYf56ibl6TblevRP0YePJMNaGN+AwawYC9EogG3z5yDhMp
RoYFP70CAwEAAaOCA3IwggNuMAkGA1UdEwQCMAAwJQYJYIZIAYb4QgENBBgWFlNT
TCBTZXJ2ZXIgQ2VydGlmaWNhdGUwDgYDVR0PAQH/BAQDAgWgMDQGA1UdJQQtMCsG
CCsGAQUFBwMBBggrBgEFBQcDAgYKKwYBBAGCNwoDAwYJYIZIAYb4QgQBMBEGCWCG
SAGG+EIBAQQEAwIGwDAdBgNVHQ4EFgQUezoYMj+F758XfSjrlsvBjykt3FswggEV
BgNVHSMEggEMMIIBCIAU9oNb4sQY36zweuvu1OHuQBIH7XyhgeSkgeEwgd4xIDAe
BgNVBAoTF0ZsdW1vdGlvbiBTZXJ2aWNlcyBTLkEuMSYwJAYDVQQKEx1odHRwOi8v
d3d3LmZsdW1vdGlvbi5uZXQvZmVhdDEXMBUGA1UECxMORmVhdCBDb3JlIFRlYW0x
ITAfBgNVBAMTGEZlYXQgRGV2ZWxvcG1lbnQgUm9vdCBDQTElMCMGCSqGSIb3DQEJ
ARYWY29yZXRlYW1AZmx1bW90aW9uLmNvbTESMBAGA1UEBxMJQmFyY2Vsb25hMQ4w
DAYDVQQIEwVTcGFpbjELMAkGA1UEBhMCRVOCCQDhgvUNNu1WvjBMBggrBgEFBQcB
AQRAMD4wPAYIKwYBBQUHMAKGMGh0dHA6Ly93d3cuZmx1bW90aW9uLm5ldC9mZWF0
L2Rldl9jYS9jYWluZm8uaHRtbDBFBgNVHR8EPjA8MDqgOKA2hjRodHRwOi8vd3d3
LmZsdW1vdGlvbi5uZXQvZmVhdC9kZXZfY3JsL2lzc3VpbmdfY2EuY3JsMIIBEgYD
VR0gBIIBCTCCAQUwgZcGCisGAQQBgfIkAQEwgYgwPgYIKwYBBQUHAgEWMmh0dHA6
Ly93d3cuZmx1bW90aW9uLm5ldC9mZWF0L2Rldl9jYS9mZWF0X2Nwcy5odG1sMEYG
CCsGAQUFBwICMDoaOEZsdW1vdGlvbiBTZXJ2aWNlcyBTLkEuIENlcnRpZmljYXRp
b24gUHJhY3RpY2UgU3RhdGVtZW50MGkGCisGAQQBgfIkAwIwWzBZBggrBgEFBQcC
AjBNGktGbHVtb3Rpb24gU2VydmljZXMgUy5BLiBTZWN1cmUgQ29tbXVuaWNhdGlv
bnMgV2ViIFNlcnZlciBDZXJ0aWZpY2F0ZSBQb2xpY3kwDQYJKoZIhvcNAQEFBQAD
ggEBAEh5EKmS9UH7vbkDEqXIpu6RsAx74ppA4uR4dx57iJhwhlcCsaLHA8g7UZT6
bLY33R2PeMqVGnYaw2zn5TP3rZZ9TznmPa5SiP3OgLnglVxnhX83jhwg/lErOwRC
C7obeusLTRnN1+XkYLbwcW8BxPN07qhKANo3RPincy3rDTMvL80SQxXaq6DN4arU
n8nHto7uVmoo1koICHg9rNotmUO/C2gyIfFwT31DnxnFrONMgmeHFdUqUFIUdAEs
ZOmkxAWawslolNGOqB/HwOGuhB/zHkRfNAtxBkb0yITD23m7Lr/c4mLafYm+Vs25
UrhYfBF+mwW4KRV/AcliI+Hmhrs=
-----END CERTIFICATE-----
