Certificate:
    Data:
        Version: 3 (0x2)
        Serial Number:
            e1:82:f5:0d:36:ed:56:ba
        Signature Algorithm: sha1WithRSAEncryption
        Issuer: O=Flumotion Services S.A., O=http://www.flumotion.net/feat, OU=Feat Core Team, CN=Feat Development Root CA/emailAddress=coreteam@flumotion.com, L=Barcelona, ST=Spain, C=ES
        Validity
            Not Before: Sep  8 16:08:21 2011 GMT
            Not After : Sep  4 16:08:21 2027 GMT
        Subject: O=Flumotion Services S.A., O=http://www.flumotion.net/feat, OU=Feat Core Team, CN=Feat Development Root CA/emailAddress=coreteam@flumotion.com, L=Barcelona, ST=Spain, C=ES
        Subject Public Key Info:
            Public Key Algorithm: rsaEncryption
            RSA Public Key: (2048 bit)
                Modulus (2048 bit):
                    00:bc:b2:7b:e7:c2:42:e5:5d:c3:6b:b0:c5:28:d7:
                    9f:45:42:f2:d3:cd:4b:61:dc:3b:14:8b:f2:e5:6b:
                    6f:64:31:00:97:c5:73:ab:ba:52:70:85:3e:bb:6f:
                    30:75:58:38:0f:6e:bf:d1:6e:ec:43:59:16:a5:55:
                    48:b6:48:81:6f:f0:63:ff:30:84:64:ac:1a:85:8c:
                    53:1c:ec:b6:ac:86:6e:b0:43:81:f1:98:ab:16:40:
                    95:b6:7b:98:ed:d9:64:77:2d:3e:bd:6b:2a:37:4e:
                    f3:c3:93:04:0a:80:6e:bc:6a:bd:3a:d5:d6:ef:84:
                    cb:d0:84:7c:17:73:d7:f8:8d:26:f9:38:08:a2:36:
                    12:10:d5:f9:72:5f:79:e8:47:a1:c2:4e:93:c5:02:
                    66:da:27:8a:ac:90:95:01:ae:1a:76:3e:b5:2e:64:
                    c7:a3:f4:c7:d1:3f:bc:f3:a8:fc:e4:dd:76:44:c7:
                    94:af:ae:9c:5b:fe:c9:4a:c5:1d:88:4c:04:e2:e6:
                    32:b1:d3:79:c8:e3:a4:dd:b6:28:0f:dc:cd:b6:b3:
                    9e:07:76:ba:34:f2:f1:62:27:f0:6f:b8:5d:29:04:
                    3c:18:e1:30:ad:08:bb:1f:1e:51:ca:d0:3b:3f:8d:
                    5b:16:71:3c:66:63:bc:90:fa:ee:47:86:cf:b3:17:
                    26:73
                Exponent: 65537 (0x10001)
        X509v3 extensions:
            X509v3 Basic Constraints: 
                CA:TRUE
            X509v3 Key Usage: critical
                Certificate Sign, CRL Sign
            X509v3 Subject Key Identifier: 
                18:0A:72:DF:B6:FB:54:D2:E6:E6:D4:51:EC:C3:C0:28:52:57:16:FD
            X509v3 Authority Key Identifier: 
                keyid:18:0A:72:DF:B6:FB:54:D2:E6:E6:D4:51:EC:C3:C0:28:52:57:16:FD
                DirName:/O=Flumotion Services S.A./O=http://www.flumotion.net/feat/OU=Feat Core Team/CN=Feat Development Root CA/emailAddress=coreteam@flumotion.com/L=Barcelona/ST=Spain/C=ES
                serial:E1:82:F5:0D:36:ED:56:BA

            Authority Information Access: 
                CA Issuers - URI:http://www.flumotion.net/feat/dev_ca/cainfo.html

            X509v3 CRL Distribution Points: 
                URI:http://www.flumotion.net/feat/dev_crl/root_ca.crl

            X509v3 Certificate Policies: 
                Policy: Feat-CPS
                  CPS: http://www.flumotion.net/feat/dev_ca/feat_cps.html
                  User Notice:
                    Explicit Text: Flumotion Services S.A. Development Certification Practice Statement

    Signature Algorithm: sha1WithRSAEncryption
        9f:ac:43:c4:e6:a5:3b:2b:25:b7:c0:f1:f6:86:db:a5:cb:f6:
        29:d3:6b:c1:81:56:8a:52:ea:83:31:85:de:30:f7:e4:81:d5:
        63:67:08:0e:c2:3e:da:c0:77:cb:53:fc:a7:6c:19:2b:28:7a:
        25:0e:2b:32:8d:cd:5f:83:c1:b3:d4:f5:49:50:89:dd:b3:5a:
        1e:3a:f2:75:cd:63:b9:d0:92:6b:54:06:2f:9e:9e:00:d8:85:
        8a:49:ab:a7:07:c9:ce:5a:3d:fd:0a:96:79:8c:ab:bb:84:40:
        33:f2:f2:bf:c4:4d:f4:90:32:cd:f6:fa:32:02:80:f1:6e:54:
        86:7b:fc:1e:c4:a2:59:8a:8b:2e:99:20:6f:39:a1:e6:9b:db:
        f1:89:f0:fa:6d:cf:cf:ae:81:43:6f:f3:13:f5:51:16:e7:93:
        af:fb:42:64:d1:02:e4:d2:5b:db:a2:e7:b7:6f:c6:97:c7:21:
        8b:e6:62:c6:52:91:51:30:da:ce:bc:76:21:a2:b9:8d:9d:99:
        2f:77:1c:28:63:07:ca:85:25:3b:da:2b:e0:7b:ef:eb:1a:17:
        74:53:67:28:ee:ed:0c:9e:d8:60:50:d2:86:3c:ae:3c:db:bc:
        3b:de:52:3f:e4:1a:d7:10:a9:c3:f4:2b:56:12:a4:4f:f1:13:
        3d:a0:ea:0f
-----BEGIN CERTIFICATE-----
MIIG4zCCBcugAwIBAgIJAOGC9Q027Va6MA0GCSqGSIb3DQEBBQUAMIHeMSAwHgYD
VQQKExdGbHVtb3Rpb24gU2VydmljZXMgUy5BLjEmMCQGA1UEChMdaHR0cDovL3d3
dy5mbHVtb3Rpb24ubmV0L2ZlYXQxFzAVBgNVBAsTDkZlYXQgQ29yZSBUZWFtMSEw
HwYDVQQDExhGZWF0IERldmVsb3BtZW50IFJvb3QgQ0ExJTAjBgkqhkiG9w0BCQEW
FmNvcmV0ZWFtQGZsdW1vdGlvbi5jb20xEjAQBgNVBAcTCUJhcmNlbG9uYTEOMAwG
A1UECBMFU3BhaW4xCzAJBgNVBAYTAkVTMB4XDTExMDkwODE2MDgyMVoXDTI3MDkw
NDE2MDgyMVowgd4xIDAeBgNVBAoTF0ZsdW1vdGlvbiBTZXJ2aWNlcyBTLkEuMSYw
JAYDVQQKEx1odHRwOi8vd3d3LmZsdW1vdGlvbi5uZXQvZmVhdDEXMBUGA1UECxMO
RmVhdCBDb3JlIFRlYW0xITAfBgNVBAMTGEZlYXQgRGV2ZWxvcG1lbnQgUm9vdCBD
QTElMCMGCSqGSIb3DQEJARYWY29yZXRlYW1AZmx1bW90aW9uLmNvbTESMBAGA1UE
BxMJQmFyY2Vsb25hMQ4wDAYDVQQIEwVTcGFpbjELMAkGA1UEBhMCRVMwggEiMA0G
CSqGSIb3DQEBAQUAA4IBDwAwggEKAoIBAQC8snvnwkLlXcNrsMUo159FQvLTzUth
3DsUi/Lla29kMQCXxXOrulJwhT67bzB1WDgPbr/RbuxDWRalVUi2SIFv8GP/MIRk
rBqFjFMc7Lashm6wQ4HxmKsWQJW2e5jt2WR3LT69ayo3TvPDkwQKgG68ar061dbv
hMvQhHwXc9f4jSb5OAiiNhIQ1flyX3noR6HCTpPFAmbaJ4qskJUBrhp2PrUuZMej
9MfRP7zzqPzk3XZEx5Svrpxb/slKxR2ITATi5jKx03nI46TdtigP3M22s54Hdro0
8vFiJ/BvuF0pBDwY4TCtCLsfHlHK0Ds/jVsWcTxmY7yQ+u5Hhs+zFyZzAgMBAAGj
ggKgMIICnDAMBgNVHRMEBTADAQH/MA4GA1UdDwEB/wQEAwIBBjAdBgNVHQ4EFgQU
GApy37b7VNLm5tRR7MPAKFJXFv0wggEVBgNVHSMEggEMMIIBCIAUGApy37b7VNLm
5tRR7MPAKFJXFv2hgeSkgeEwgd4xIDAeBgNVBAoTF0ZsdW1vdGlvbiBTZXJ2aWNl
cyBTLkEuMSYwJAYDVQQKEx1odHRwOi8vd3d3LmZsdW1vdGlvbi5uZXQvZmVhdDEX
MBUGA1UECxMORmVhdCBDb3JlIFRlYW0xITAfBgNVBAMTGEZlYXQgRGV2ZWxvcG1l
bnQgUm9vdCBDQTElMCMGCSqGSIb3DQEJARYWY29yZXRlYW1AZmx1bW90aW9uLmNv
bTESMBAGA1UEBxMJQmFyY2Vsb25hMQ4wDAYDVQQIEwVTcGFpbjELMAkGA1UEBhMC
RVOCCQDhgvUNNu1WujBMBggrBgEFBQcBAQRAMD4wPAYIKwYBBQUHMAKGMGh0dHA6
Ly93d3cuZmx1bW90aW9uLm5ldC9mZWF0L2Rldl9jYS9jYWluZm8uaHRtbDBCBgNV
HR8EOzA5MDegNaAzhjFodHRwOi8vd3d3LmZsdW1vdGlvbi5uZXQvZmVhdC9kZXZf
Y3JsL3Jvb3RfY2EuY3JsMIGxBgNVHSAEgakwgaYwgaMGCisGAQQBgfIkAQEwgZQw
PgYIKwYBBQUHAgEWMmh0dHA6Ly93d3cuZmx1bW90aW9uLm5ldC9mZWF0L2Rldl9j
YS9mZWF0X2Nwcy5odG1sMFIGCCsGAQUFBwICMEYaREZsdW1vdGlvbiBTZXJ2aWNl
cyBTLkEuIERldmVsb3BtZW50IENlcnRpZmljYXRpb24gUHJhY3RpY2UgU3RhdGVt
ZW50MA0GCSqGSIb3DQEBBQUAA4IBAQCfrEPE5qU7KyW3wPH2htuly/Yp02vBgVaK
UuqDMYXeMPfkgdVjZwgOwj7awHfLU/ynbBkrKHolDisyjc1fg8Gz1PVJUInds1oe
OvJ1zWO50JJrVAYvnp4A2IWKSaunB8nOWj39CpZ5jKu7hEAz8vK/xE30kDLN9voy
AoDxblSGe/wexKJZiosumSBvOaHmm9vxifD6bc/ProFDb/MT9VEW55Ov+0Jk0QLk
0lvboue3b8aXxyGL5mLGUpFRMNrOvHYhormNnZkvdxwoYwfKhSU72ivge+/rGhd0
U2co7u0MnthgUNKGPK4827w73lI/5BrXEKnD9CtWEqRP8RM9oOoP
-----END CERTIFICATE-----
