Certificate:
    Data:
        Version: 3 (0x2)
        Serial Number:
            91:fb:57:6f:24:0f:78:88
        Signature Algorithm: sha1WithRSAEncryption
        Issuer: O=Opensource, O=https://github.com/f3at/feat, OU=Feat Core Team, CN=Feat Development Gateway CA/emailAddress=kowalski0123@gmail.com, L=Barcelona, ST=Spain, C=ES
        Validity
            Not Before: Mar 23 09:23:37 2012 GMT
            Not After : Mar 21 09:23:37 2020 GMT
        Subject: O=Opensource, O=https://github.com/f3at/feat, OU=Feat Core Team, CN=Admin,admin/emailAddress=email@email.com, L=Barcelona, ST=Spain, C=ES
        Subject Public Key Info:
            Public Key Algorithm: rsaEncryption
            RSA Public Key: (1024 bit)
                Modulus (1024 bit):
                    00:b6:8c:8c:7d:8e:f1:48:8a:15:fc:14:7c:6d:3d:
                    3a:18:1e:fc:18:e0:f1:0c:fa:0c:8a:e5:1f:20:0f:
                    0b:a1:88:25:c2:c2:20:43:88:26:79:e3:01:19:14:
                    32:83:fa:2a:f2:4e:8b:6d:74:ce:2c:c9:6c:82:bf:
                    d3:54:c9:fa:58:a1:04:da:bf:0e:c2:97:52:e5:58:
                    34:ea:28:b7:3e:03:c7:bc:6f:d5:4a:63:d4:86:f3:
                    c6:ee:78:13:b9:97:02:07:0e:23:79:c0:1b:d4:68:
                    d1:95:ac:cb:33:79:cb:35:82:6b:9f:3c:ec:a7:cf:
                    83:a3:e7:22:dd:78:5a:78:97
                Exponent: 65537 (0x10001)
        X509v3 extensions:
            X509v3 Basic Constraints: 
                CA:FALSE
            Netscape Comment: 
                SSL Client Certificate
            X509v3 Key Usage: 
                Digital Signature, Key Encipherment
            X509v3 Extended Key Usage: 
                TLS Web Client Authentication
            Netscape Cert Type: 
                SSL Client
            X509v3 Subject Key Identifier: 
                8C:45:FC:B5:19:5A:56:A6:79:8D:49:D6:7E:9A:17:B5:26:9C:51:F9
            X509v3 Authority Key Identifier: 
                keyid:29:2F:C3:28:52:A0:4A:AD:F6:84:01:F4:F0:29:CC:04:CC:FE:07:F2
                DirName:/O=Opensource/O=https://github.com/f3at/feat/OU=Feat Core Team/CN=Feat Development Root CA/emailAddress=kowalski0123@gmail.com/L=Barcelona/ST=Spain/C=ES
                serial:F2:BB:40:D3:03:5C:55:C5

            Authority Information Access: 
                CA Issuers - URI:https://github.com/f3at/feat/dev_ca/cainfo.html

            X509v3 CRL Distribution Points: 
                URI:https://github.com/f3at/feat/dev_crl/issuing_ca.crl

            X509v3 Certificate Policies: 
                Policy: Feat-CPS
                  CPS: https://github.com/f3at/feat/dev_ca/feat_cps.html
                  User Notice:
                    Explicit Text: Opensource Certification Practice Statement
                Policy: Feat-TLS-WEB-Cert
                  User Notice:
                    Explicit Text: Opensource Secure Communications Web Server Certificate Policy

    Signature Algorithm: sha1WithRSAEncryption
        05:33:73:66:b1:4c:cb:b8:3e:04:55:70:e8:60:78:e0:0c:74:
        57:61:c6:b1:13:27:83:19:82:67:87:a4:b1:bf:f0:c5:bd:28:
        b3:18:4f:86:38:0b:66:37:35:1d:40:07:25:cf:b9:2b:7e:bf:
        bf:03:2f:a7:5f:8f:3b:90:fa:58:c5:d2:24:08:0e:da:36:66:
        e4:af:af:2b:34:da:6c:d2:e1:93:2a:e7:02:f9:0a:9a:84:f4:
        0a:6d:0b:c4:2d:8f:fd:d5:92:07:c7:f6:66:25:70:df:16:25:
        d9:e8:d7:a9:db:b1:69:91:5c:c4:cf:ad:f7:a5:21:6c:d5:e6:
        7a:7a:34:39:da:b2:dc:1e:57:31:9a:63:03:26:2a:f0:87:5e:
        d7:4e:6f:3a:48:c3:e7:44:c0:a8:08:a1:1b:28:f4:41:e5:6f:
        a2:2c:25:19:ee:c8:05:49:0f:49:f3:b1:3f:36:e1:74:1c:d8:
        37:98:b5:d0:9e:12:47:5c:aa:72:e3:d8:67:bc:a9:ac:ea:08:
        6e:7d:a3:3c:3d:a4:51:78:8d:5e:c3:13:78:20:cf:88:8a:dd:
        dc:29:a5:59:22:c7:99:ec:7c:f9:38:50:37:e8:a3:01:f7:48:
        61:fb:9a:ad:21:fd:80:01:e8:76:ae:5d:cc:6d:a1:d3:13:ea:
        3c:8b:50:84
-----BEGIN CERTIFICATE-----
MIIGrzCCBZegAwIBAgIJAJH7V28kD3iIMA0GCSqGSIb3DQEBBQUAMIHTMRMwEQYD
VQQKEwpPcGVuc291cmNlMSUwIwYDVQQKExxodHRwczovL2dpdGh1Yi5jb20vZjNh
dC9mZWF0MRcwFQYDVQQLEw5GZWF0IENvcmUgVGVhbTEkMCIGA1UEAxMbRmVhdCBE
ZXZlbG9wbWVudCBHYXRld2F5IENBMSUwIwYJKoZIhvcNAQkBFhZrb3dhbHNraTAx
MjNAZ21haWwuY29tMRIwEAYDVQQHEwlCYXJjZWxvbmExDjAMBgNVBAgTBVNwYWlu
MQswCQYDVQQGEwJFUzAeFw0xMjAzMjMwOTIzMzdaFw0yMDAzMjEwOTIzMzdaMIG8
MRMwEQYDVQQKEwpPcGVuc291cmNlMSUwIwYDVQQKExxodHRwczovL2dpdGh1Yi5j
b20vZjNhdC9mZWF0MRcwFQYDVQQLEw5GZWF0IENvcmUgVGVhbTEUMBIGA1UEAxML
QWRtaW4sYWRtaW4xHjAcBgkqhkiG9w0BCQEWD2VtYWlsQGVtYWlsLmNvbTESMBAG
A1UEBxMJQmFyY2Vsb25hMQ4wDAYDVQQIEwVTcGFpbjELMAkGA1UEBhMCRVMwgZ8w
DQYJKoZIhvcNAQEBBQADgY0AMIGJAoGBALaMjH2O8UiKFfwUfG09Ohge/Bjg8Qz6
DIrlHyAPC6GIJcLCIEOIJnnjARkUMoP6KvJOi210zizJbIK/01TJ+lihBNq/DsKX
UuVYNOootz4Dx7xv1Upj1Ibzxu54E7mXAgcOI3nAG9Ro0ZWsyzN5yzWCa5887KfP
g6PnIt14WniXAgMBAAGjggMdMIIDGTAJBgNVHRMEAjAAMCUGCWCGSAGG+EIBDQQY
FhZTU0wgQ2xpZW50IENlcnRpZmljYXRlMAsGA1UdDwQEAwIFoDATBgNVHSUEDDAK
BggrBgEFBQcDAjARBglghkgBhvhCAQEEBAMCB4AwHQYDVR0OBBYEFIxF/LUZWlam
eY1J1n6aF7UmnFH5MIIBBQYDVR0jBIH9MIH6gBQpL8MoUqBKrfaEAfTwKcwEzP4H
8qGB1qSB0zCB0DETMBEGA1UEChMKT3BlbnNvdXJjZTElMCMGA1UEChMcaHR0cHM6
Ly9naXRodWIuY29tL2YzYXQvZmVhdDEXMBUGA1UECxMORmVhdCBDb3JlIFRlYW0x
ITAfBgNVBAMTGEZlYXQgRGV2ZWxvcG1lbnQgUm9vdCBDQTElMCMGCSqGSIb3DQEJ
ARYWa293YWxza2kwMTIzQGdtYWlsLmNvbTESMBAGA1UEBxMJQmFyY2Vsb25hMQ4w
DAYDVQQIEwVTcGFpbjELMAkGA1UEBhMCRVOCCQDyu0DTA1xVxTBLBggrBgEFBQcB
AQQ/MD0wOwYIKwYBBQUHMAKGL2h0dHBzOi8vZ2l0aHViLmNvbS9mM2F0L2ZlYXQv
ZGV2X2NhL2NhaW5mby5odG1sMEQGA1UdHwQ9MDswOaA3oDWGM2h0dHBzOi8vZ2l0
aHViLmNvbS9mM2F0L2ZlYXQvZGV2X2NybC9pc3N1aW5nX2NhLmNybDCB9AYDVR0g
BIHsMIHpMIGIBgorBgEEAYHyJAEBMHowPQYIKwYBBQUHAgEWMWh0dHBzOi8vZ2l0
aHViLmNvbS9mM2F0L2ZlYXQvZGV2X2NhL2ZlYXRfY3BzLmh0bWwwOQYIKwYBBQUH
AgIwLRorT3BlbnNvdXJjZSBDZXJ0aWZpY2F0aW9uIFByYWN0aWNlIFN0YXRlbWVu
dDBcBgorBgEEAYHyJAMCME4wTAYIKwYBBQUHAgIwQBo+T3BlbnNvdXJjZSBTZWN1
cmUgQ29tbXVuaWNhdGlvbnMgV2ViIFNlcnZlciBDZXJ0aWZpY2F0ZSBQb2xpY3kw
DQYJKoZIhvcNAQEFBQADggEBAAUzc2axTMu4PgRVcOhgeOAMdFdhxrETJ4MZgmeH
pLG/8MW9KLMYT4Y4C2Y3NR1AByXPuSt+v78DL6dfjzuQ+ljF0iQIDto2ZuSvrys0
2mzS4ZMq5wL5CpqE9AptC8Qtj/3VkgfH9mYlcN8WJdno16nbsWmRXMTPrfelIWzV
5np6NDnastweVzGaYwMmKvCHXtdObzpIw+dEwKgIoRso9EHlb6IsJRnuyAVJD0nz
sT824XQc2DeYtdCeEkdcqnLj2Ge8qazqCG59ozw9pFF4jV7DE3ggz4iK3dwppVki
x5nsfPk4UDfoowH3SGH7mq0h/YAB6HauXcxtodMT6jyLUIQ=
-----END CERTIFICATE-----
