Certificate:
    Data:
        Version: 3 (0x2)
        Serial Number:
            1b:4a:11:71:98:81:86:cd
        Signature Algorithm: sha1WithRSAEncryption
        Issuer: O=Flumotion Services S.A., O=http://www.flumotion.net/feat, OU=Feat Core Team, CN=Feat Development Gateway CA/emailAddress=coreteam@flumotion.com, L=Barcelona, ST=Spain, C=ES
        Validity
            Not Before: Sep  8 16:16:53 2011 GMT
            Not After : Sep  6 16:16:53 2019 GMT
        Subject: O=Flumotion Services S.A., O=http://www.flumotion.net/feat, OU=Feat Core Team, CN=Dummy User/emailAddress=dummy@flumotion.net, L=Barcelona, ST=Spain, C=ES
        Subject Public Key Info:
            Public Key Algorithm: rsaEncryption
            RSA Public Key: (1024 bit)
                Modulus (1024 bit):
                    00:bf:ef:62:28:96:11:d8:ea:1a:94:5e:36:77:e5:
                    ca:6d:a0:22:4d:d5:36:ba:3b:fd:85:eb:bd:f1:e8:
                    ab:9d:73:3e:7b:1b:e0:47:89:30:e3:bc:ab:4d:6e:
                    a1:19:6b:82:d8:be:24:e4:ce:30:dd:2e:d4:a1:55:
                    b4:44:a4:36:1c:42:2e:d1:58:6c:a5:ec:58:cf:db:
                    8c:b4:bf:94:8c:96:d1:56:ef:bc:d2:a0:ad:23:46:
                    8d:2c:24:a9:fb:b2:32:cb:79:74:45:b7:bc:f8:74:
                    55:f5:19:ea:37:21:dd:80:8c:46:a1:24:01:7c:62:
                    1c:fe:cd:5b:2b:38:ce:34:ff
                Exponent: 65537 (0x10001)
        X509v3 extensions:
            X509v3 Basic Constraints: 
                CA:FALSE
            Netscape Comment: 
                SSL Client Certificate
            X509v3 Key Usage: 
                Digital Signature, Key Encipherment
            X509v3 Extended Key Usage: 
                TLS Web Client Authentication
            Netscape Cert Type: 
                SSL Client
            X509v3 Subject Key Identifier: 
                44:EB:8A:C0:FB:C0:86:92:C7:10:4E:17:76:3A:A4:20:35:2B:F3:73
            X509v3 Authority Key Identifier: 
                keyid:70:5A:F6:0D:BF:4B:E4:B9:CC:25:DB:A1:DC:B2:55:9B:75:D7:76:24
                DirName:/O=Flumotion Services S.A./O=http://www.flumotion.net/feat/OU=Feat Core Team/CN=Feat Development Root CA/emailAddress=coreteam@flumotion.com/L=Barcelona/ST=Spain/C=ES
                serial:E1:82:F5:0D:36:ED:56:BB

            Authority Information Access: 
                CA Issuers - URI:http://www.flumotion.com/feat/dev_ca/cainfo.html

            X509v3 CRL Distribution Points: 
                URI:http://www.flumotion.com/feat/dev_crl/issuing_ca.crl

            X509v3 Certificate Policies: 
                Policy: Feat-CPS
                  CPS: http://www.flumotion.net/feat/dev_ca/feat_cps.html
                  User Notice:
                    Explicit Text: Flumotion Services S.A. Certification Practice Statement
                Policy: Feat-TLS-WEB-Cert
                  User Notice:
                    Explicit Text: Flumotion Services S.A. Secure Communications Web Server Certificate Policy

    Signature Algorithm: sha1WithRSAEncryption
        90:a5:69:e7:9d:a8:ed:03:01:4c:ba:32:f1:d7:28:f7:b6:23:
        e3:da:0b:83:07:84:9f:19:bd:b5:b4:8d:fc:8d:7a:08:d3:3e:
        21:a7:7c:78:c7:7f:eb:31:7b:c9:4f:92:c2:02:4f:6a:7e:73:
        63:a5:ab:10:cb:b8:ae:2d:6a:83:77:de:51:a7:b5:cf:69:a4:
        2f:08:1b:d3:4c:a9:2c:c0:1d:8e:33:38:f4:40:cb:b3:9d:b5:
        a9:da:b1:db:77:91:af:db:56:d6:18:96:5f:42:c7:eb:c9:5f:
        a3:4b:56:11:00:f3:2e:b6:ac:21:64:71:5f:ef:00:46:eb:a1:
        56:b5:bf:2f:18:b5:a4:7a:de:24:37:75:44:08:f7:ac:00:46:
        d7:8b:60:46:bd:f9:32:13:d8:47:79:89:74:cc:15:5b:01:62:
        92:0e:54:ba:4a:08:41:2d:eb:fc:bf:83:e8:12:7f:aa:d7:ea:
        bd:63:ef:0f:01:5b:b1:2a:a7:eb:e5:41:8a:e8:00:19:c6:c2:
        cf:c4:bc:c6:44:0c:b3:7c:39:ca:d3:0e:98:2c:c4:25:82:e0:
        df:27:ec:db:18:6f:d5:b4:58:a4:6e:9d:2f:5f:e8:2c:f0:d8:
        a7:62:09:24:7c:d3:a0:89:59:a3:c9:d0:9c:73:ff:d9:19:80:
        2d:bc:3b:4e
-----BEGIN CERTIFICATE-----
MIIG/jCCBeagAwIBAgIIG0oRcZiBhs0wDQYJKoZIhvcNAQEFBQAwgeExIDAeBgNV
BAoTF0ZsdW1vdGlvbiBTZXJ2aWNlcyBTLkEuMSYwJAYDVQQKEx1odHRwOi8vd3d3
LmZsdW1vdGlvbi5uZXQvZmVhdDEXMBUGA1UECxMORmVhdCBDb3JlIFRlYW0xJDAi
BgNVBAMTG0ZlYXQgRGV2ZWxvcG1lbnQgR2F0ZXdheSBDQTElMCMGCSqGSIb3DQEJ
ARYWY29yZXRlYW1AZmx1bW90aW9uLmNvbTESMBAGA1UEBxMJQmFyY2Vsb25hMQ4w
DAYDVQQIEwVTcGFpbjELMAkGA1UEBhMCRVMwHhcNMTEwOTA4MTYxNjUzWhcNMTkw
OTA2MTYxNjUzWjCBzTEgMB4GA1UEChMXRmx1bW90aW9uIFNlcnZpY2VzIFMuQS4x
JjAkBgNVBAoTHWh0dHA6Ly93d3cuZmx1bW90aW9uLm5ldC9mZWF0MRcwFQYDVQQL
Ew5GZWF0IENvcmUgVGVhbTETMBEGA1UEAxMKRHVtbXkgVXNlcjEiMCAGCSqGSIb3
DQEJARYTZHVtbXlAZmx1bW90aW9uLm5ldDESMBAGA1UEBxMJQmFyY2Vsb25hMQ4w
DAYDVQQIEwVTcGFpbjELMAkGA1UEBhMCRVMwgZ8wDQYJKoZIhvcNAQEBBQADgY0A
MIGJAoGBAL/vYiiWEdjqGpReNnflym2gIk3VNro7/YXrvfHoq51zPnsb4EeJMOO8
q01uoRlrgti+JOTOMN0u1KFVtESkNhxCLtFYbKXsWM/bjLS/lIyW0VbvvNKgrSNG
jSwkqfuyMst5dEW3vPh0VfUZ6jch3YCMRqEkAXxiHP7NWys4zjT/AgMBAAGjggNO
MIIDSjAJBgNVHRMEAjAAMCUGCWCGSAGG+EIBDQQYFhZTU0wgQ2xpZW50IENlcnRp
ZmljYXRlMAsGA1UdDwQEAwIFoDATBgNVHSUEDDAKBggrBgEFBQcDAjARBglghkgB
hvhCAQEEBAMCB4AwHQYDVR0OBBYEFETrisD7wIaSxxBOF3Y6pCA1K/NzMIIBFQYD
VR0jBIIBDDCCAQiAFHBa9g2/S+S5zCXbodyyVZt113YkoYHkpIHhMIHeMSAwHgYD
VQQKExdGbHVtb3Rpb24gU2VydmljZXMgUy5BLjEmMCQGA1UEChMdaHR0cDovL3d3
dy5mbHVtb3Rpb24ubmV0L2ZlYXQxFzAVBgNVBAsTDkZlYXQgQ29yZSBUZWFtMSEw
HwYDVQQDExhGZWF0IERldmVsb3BtZW50IFJvb3QgQ0ExJTAjBgkqhkiG9w0BCQEW
FmNvcmV0ZWFtQGZsdW1vdGlvbi5jb20xEjAQBgNVBAcTCUJhcmNlbG9uYTEOMAwG
A1UECBMFU3BhaW4xCzAJBgNVBAYTAkVTggkA4YL1DTbtVrswTAYIKwYBBQUHAQEE
QDA+MDwGCCsGAQUFBzAChjBodHRwOi8vd3d3LmZsdW1vdGlvbi5jb20vZmVhdC9k
ZXZfY2EvY2FpbmZvLmh0bWwwRQYDVR0fBD4wPDA6oDigNoY0aHR0cDovL3d3dy5m
bHVtb3Rpb24uY29tL2ZlYXQvZGV2X2NybC9pc3N1aW5nX2NhLmNybDCCARIGA1Ud
IASCAQkwggEFMIGXBgorBgEEAYHyJAEBMIGIMD4GCCsGAQUFBwIBFjJodHRwOi8v
d3d3LmZsdW1vdGlvbi5uZXQvZmVhdC9kZXZfY2EvZmVhdF9jcHMuaHRtbDBGBggr
BgEFBQcCAjA6GjhGbHVtb3Rpb24gU2VydmljZXMgUy5BLiBDZXJ0aWZpY2F0aW9u
IFByYWN0aWNlIFN0YXRlbWVudDBpBgorBgEEAYHyJAMCMFswWQYIKwYBBQUHAgIw
TRpLRmx1bW90aW9uIFNlcnZpY2VzIFMuQS4gU2VjdXJlIENvbW11bmljYXRpb25z
IFdlYiBTZXJ2ZXIgQ2VydGlmaWNhdGUgUG9saWN5MA0GCSqGSIb3DQEBBQUAA4IB
AQCQpWnnnajtAwFMujLx1yj3tiPj2guDB4SfGb21tI38jXoI0z4hp3x4x3/rMXvJ
T5LCAk9qfnNjpasQy7iuLWqDd95Rp7XPaaQvCBvTTKkswB2OMzj0QMuznbWp2rHb
d5Gv21bWGJZfQsfryV+jS1YRAPMutqwhZHFf7wBG66FWtb8vGLWket4kN3VECPes
AEbXi2BGvfkyE9hHeYl0zBVbAWKSDlS6SghBLev8v4PoEn+q1+q9Y+8PAVuxKqfr
5UGK6AAZxsLPxLzGRAyzfDnK0w6YLMQlguDfJ+zbGG/VtFikbp0vX+gs8NinYgkk
fNOgiVmjydCcc//ZGYAtvDtO
-----END CERTIFICATE-----
