Certificate:
    Data:
        Version: 3 (0x2)
        Serial Number:
            1b:4a:11:71:98:81:86:cf
        Signature Algorithm: sha1WithRSAEncryption
        Issuer: O=Flumotion Services S.A., O=http://www.flumotion.net/feat, OU=Feat Core Team, CN=Feat Development Gateway CA/emailAddress=coreteam@flumotion.com, L=Barcelona, ST=Spain, C=ES
        Validity
            Not Before: Jan  5 13:59:04 2012 GMT
            Not After : Jan  3 13:59:04 2020 GMT
        Subject: O=Flumotion Services S.A., O=http://www.flumotion.net/feat, OU=Feat Core Team, CN=Default,admin/emailAddress=coreteam@flumotion.com, L=Barcelona, ST=Spain, C=ES
        Subject Public Key Info:
            Public Key Algorithm: rsaEncryption
            RSA Public Key: (1024 bit)
                Modulus (1024 bit):
                    00:c7:9a:4e:5f:05:3b:62:12:9e:02:c3:e8:da:f6:
                    e4:4d:ce:b3:05:20:4a:cc:c9:9f:a7:e5:a8:93:c0:
                    c9:84:98:2f:8b:79:5f:6f:46:c0:fb:29:3d:9c:84:
                    70:5c:0d:17:25:68:c9:cb:1a:79:3a:c6:d3:de:f6:
                    a7:51:90:38:e8:5a:ba:6c:45:a9:46:f3:c8:a7:9a:
                    0d:f8:07:8a:48:0a:8e:34:89:24:84:97:28:5f:74:
                    78:17:2f:d1:6d:90:29:ce:91:59:7d:12:ab:16:0c:
                    8c:81:2f:19:db:05:7f:96:e3:fd:38:5f:95:e9:c8:
                    ca:5c:5c:76:0d:7f:d1:26:db
                Exponent: 65537 (0x10001)
        X509v3 extensions:
            X509v3 Basic Constraints: 
                CA:FALSE
            Netscape Comment: 
                SSL Client Certificate
            X509v3 Key Usage: 
                Digital Signature, Key Encipherment
            X509v3 Extended Key Usage: 
                TLS Web Client Authentication
            Netscape Cert Type: 
                SSL Client
            X509v3 Subject Key Identifier: 
                1A:AF:7B:38:3B:36:B6:24:A7:0D:E9:22:E8:D1:11:17:A5:CF:7D:AD
            X509v3 Authority Key Identifier: 
                keyid:70:5A:F6:0D:BF:4B:E4:B9:CC:25:DB:A1:DC:B2:55:9B:75:D7:76:24
                DirName:/O=Flumotion Services S.A./O=http://www.flumotion.net/feat/OU=Feat Core Team/CN=Feat Development Root CA/emailAddress=coreteam@flumotion.com/L=Barcelona/ST=Spain/C=ES
                serial:E1:82:F5:0D:36:ED:56:BB

            Authority Information Access: 
                CA Issuers - URI:http://www.flumotion.com/feat/dev_ca/cainfo.html

            X509v3 CRL Distribution Points: 
                URI:http://www.flumotion.com/feat/dev_crl/issuing_ca.crl

            X509v3 Certificate Policies: 
                Policy: Feat-CPS
                  CPS: http://www.flumotion.net/feat/dev_ca/feat_cps.html
                  User Notice:
                    Explicit Text: Flumotion Services S.A. Certification Practice Statement
                Policy: Feat-TLS-WEB-Cert
                  User Notice:
                    Explicit Text: Flumotion Services S.A. Secure Communications Web Server Certificate Policy

    Signature Algorithm: sha1WithRSAEncryption
        2b:b9:bf:1f:48:62:d1:28:03:55:a7:34:ae:51:84:24:27:43:
        30:9b:12:02:e1:c0:55:69:8c:90:88:35:18:22:d8:e6:70:b1:
        95:c6:60:c9:c7:3a:d9:2b:3c:10:0e:38:ff:93:c4:95:78:b8:
        75:50:67:d3:3f:d2:ab:61:6a:0e:75:ba:8f:e5:03:49:61:3a:
        6c:94:26:7b:6e:24:f7:16:35:09:25:25:88:90:bb:df:32:a0:
        d6:b8:e0:7f:e8:da:4a:1e:2d:63:4e:1d:26:d5:4e:20:49:19:
        a5:5b:48:af:c7:d2:31:4d:cc:93:61:9c:68:e0:1f:59:41:e5:
        e0:73:9c:4b:35:2c:a7:c7:20:a5:01:59:4d:c3:9b:33:48:7e:
        e1:24:58:ad:af:4f:29:c5:f7:99:16:e3:61:2b:8a:78:9c:4a:
        15:23:8f:b8:37:b4:dc:72:08:a4:3c:b2:77:13:3b:94:f7:20:
        cd:9d:73:93:a5:42:49:86:2a:66:78:71:07:3d:25:22:b1:7d:
        87:44:a8:3e:4f:a8:c5:3f:86:a1:53:ec:ca:18:2c:79:5b:de:
        b9:68:bc:b6:e6:49:9f:fa:3c:c2:83:a0:2d:f3:fb:db:a4:84:
        3f:cd:2f:b1:e2:a1:bc:79:d0:5e:ce:21:f9:da:79:d4:b0:98:
        12:8f:76:bd
-----BEGIN CERTIFICATE-----
MIIHBDCCBeygAwIBAgIIG0oRcZiBhs8wDQYJKoZIhvcNAQEFBQAwgeExIDAeBgNV
BAoTF0ZsdW1vdGlvbiBTZXJ2aWNlcyBTLkEuMSYwJAYDVQQKEx1odHRwOi8vd3d3
LmZsdW1vdGlvbi5uZXQvZmVhdDEXMBUGA1UECxMORmVhdCBDb3JlIFRlYW0xJDAi
BgNVBAMTG0ZlYXQgRGV2ZWxvcG1lbnQgR2F0ZXdheSBDQTElMCMGCSqGSIb3DQEJ
ARYWY29yZXRlYW1AZmx1bW90aW9uLmNvbTESMBAGA1UEBxMJQmFyY2Vsb25hMQ4w
DAYDVQQIEwVTcGFpbjELMAkGA1UEBhMCRVMwHhcNMTIwMTA1MTM1OTA0WhcNMjAw
MTAzMTM1OTA0WjCB0zEgMB4GA1UEChMXRmx1bW90aW9uIFNlcnZpY2VzIFMuQS4x
JjAkBgNVBAoTHWh0dHA6Ly93d3cuZmx1bW90aW9uLm5ldC9mZWF0MRcwFQYDVQQL
Ew5GZWF0IENvcmUgVGVhbTEWMBQGA1UEAxMNRGVmYXVsdCxhZG1pbjElMCMGCSqG
SIb3DQEJARYWY29yZXRlYW1AZmx1bW90aW9uLmNvbTESMBAGA1UEBxMJQmFyY2Vs
b25hMQ4wDAYDVQQIEwVTcGFpbjELMAkGA1UEBhMCRVMwgZ8wDQYJKoZIhvcNAQEB
BQADgY0AMIGJAoGBAMeaTl8FO2ISngLD6Nr25E3OswUgSszJn6flqJPAyYSYL4t5
X29GwPspPZyEcFwNFyVoycsaeTrG0972p1GQOOhaumxFqUbzyKeaDfgHikgKjjSJ
JISXKF90eBcv0W2QKc6RWX0SqxYMjIEvGdsFf5bj/ThflenIylxcdg1/0SbbAgMB
AAGjggNOMIIDSjAJBgNVHRMEAjAAMCUGCWCGSAGG+EIBDQQYFhZTU0wgQ2xpZW50
IENlcnRpZmljYXRlMAsGA1UdDwQEAwIFoDATBgNVHSUEDDAKBggrBgEFBQcDAjAR
BglghkgBhvhCAQEEBAMCB4AwHQYDVR0OBBYEFBqvezg7NrYkpw3pIujRERelz32t
MIIBFQYDVR0jBIIBDDCCAQiAFHBa9g2/S+S5zCXbodyyVZt113YkoYHkpIHhMIHe
MSAwHgYDVQQKExdGbHVtb3Rpb24gU2VydmljZXMgUy5BLjEmMCQGA1UEChMdaHR0
cDovL3d3dy5mbHVtb3Rpb24ubmV0L2ZlYXQxFzAVBgNVBAsTDkZlYXQgQ29yZSBU
ZWFtMSEwHwYDVQQDExhGZWF0IERldmVsb3BtZW50IFJvb3QgQ0ExJTAjBgkqhkiG
9w0BCQEWFmNvcmV0ZWFtQGZsdW1vdGlvbi5jb20xEjAQBgNVBAcTCUJhcmNlbG9u
YTEOMAwGA1UECBMFU3BhaW4xCzAJBgNVBAYTAkVTggkA4YL1DTbtVrswTAYIKwYB
BQUHAQEEQDA+MDwGCCsGAQUFBzAChjBodHRwOi8vd3d3LmZsdW1vdGlvbi5jb20v
ZmVhdC9kZXZfY2EvY2FpbmZvLmh0bWwwRQYDVR0fBD4wPDA6oDigNoY0aHR0cDov
L3d3dy5mbHVtb3Rpb24uY29tL2ZlYXQvZGV2X2NybC9pc3N1aW5nX2NhLmNybDCC
ARIGA1UdIASCAQkwggEFMIGXBgorBgEEAYHyJAEBMIGIMD4GCCsGAQUFBwIBFjJo
dHRwOi8vd3d3LmZsdW1vdGlvbi5uZXQvZmVhdC9kZXZfY2EvZmVhdF9jcHMuaHRt
bDBGBggrBgEFBQcCAjA6GjhGbHVtb3Rpb24gU2VydmljZXMgUy5BLiBDZXJ0aWZp
Y2F0aW9uIFByYWN0aWNlIFN0YXRlbWVudDBpBgorBgEEAYHyJAMCMFswWQYIKwYB
BQUHAgIwTRpLRmx1bW90aW9uIFNlcnZpY2VzIFMuQS4gU2VjdXJlIENvbW11bmlj
YXRpb25zIFdlYiBTZXJ2ZXIgQ2VydGlmaWNhdGUgUG9saWN5MA0GCSqGSIb3DQEB
BQUAA4IBAQArub8fSGLRKANVpzSuUYQkJ0MwmxIC4cBVaYyQiDUYItjmcLGVxmDJ
xzrZKzwQDjj/k8SVeLh1UGfTP9KrYWoOdbqP5QNJYTpslCZ7biT3FjUJJSWIkLvf
MqDWuOB/6NpKHi1jTh0m1U4gSRmlW0ivx9IxTcyTYZxo4B9ZQeXgc5xLNSynxyCl
AVlNw5szSH7hJFitr08pxfeZFuNhK4p4nEoVI4+4N7TccgikPLJ3EzuU9yDNnXOT
pUJJhipmeHEHPSUisX2HRKg+T6jFP4ahU+zKGCx5W965aLy25kmf+jzCg6At8/vb
pIQ/zS+x4qG8edBeziH52nnUsJgSj3a9
-----END CERTIFICATE-----
