Certificate:
    Data:
        Version: 3 (0x2)
        Serial Number:
            e1:82:f5:0d:36:ed:56:ba
        Signature Algorithm: sha1WithRSAEncryption
        Issuer: O=Flumotion Services S.A., O=http://www.flumotion.net/feat, OU=Feat Core Team, CN=Feat Development Root CA/emailAddress=coreteam@flumotion.com, L=Barcelona, ST=Spain, C=ES
        Validity
            Not Before: Sep  8 16:08:21 2011 GMT
            Not After : Sep  4 16:08:21 2027 GMT
        Subject: O=Flumotion Services S.A., O=http://www.flumotion.net/feat, OU=Feat Core Team, CN=Feat Development Root CA/emailAddress=coreteam@flumotion.com, L=Barcelona, ST=Spain, C=ES
        Subject Public Key Info:
            Public Key Algorithm: rsaEncryption
            RSA Public Key: (2048 bit)
                Modulus (2048 bit):
                    00:bc:b2:7b:e7:c2:42:e5:5d:c3:6b:b0:c5:28:d7:
                    9f:45:42:f2:d3:cd:4b:61:dc:3b:14:8b:f2:e5:6b:
                    6f:64:31:00:97:c5:73:ab:ba:52:70:85:3e:bb:6f:
                    30:75:58:38:0f:6e:bf:d1:6e:ec:43:59:16:a5:55:
                    48:b6:48:81:6f:f0:63:ff:30:84:64:ac:1a:85:8c:
                    53:1c:ec:b6:ac:86:6e:b0:43:81:f1:98:ab:16:40:
                    95:b6:7b:98:ed:d9:64:77:2d:3e:bd:6b:2a:37:4e:
                    f3:c3:93:04:0a:80:6e:bc:6a:bd:3a:d5:d6:ef:84:
                    cb:d0:84:7c:17:73:d7:f8:8d:26:f9:38:08:a2:36:
                    12:10:d5:f9:72:5f:79:e8:47:a1:c2:4e:93:c5:02:
                    66:da:27:8a:ac:90:95:01:ae:1a:76:3e:b5:2e:64:
                    c7:a3:f4:c7:d1:3f:bc:f3:a8:fc:e4:dd:76:44:c7:
                    94:af:ae:9c:5b:fe:c9:4a:c5:1d:88:4c:04:e2:e6:
                    32:b1:d3:79:c8:e3:a4:dd:b6:28:0f:dc:cd:b6:b3:
                    9e:07:76:ba:34:f2:f1:62:27:f0:6f:b8:5d:29:04:
                    3c:18:e1:30:ad:08:bb:1f:1e:51:ca:d0:3b:3f:8d:
                    5b:16:71:3c:66:63:bc:90:fa:ee:47:86:cf:b3:17:
                    26:73
                Exponent: 65537 (0x10001)
        X509v3 extensions:
            X509v3 Basic Constraints: 
                CA:TRUE
            X509v3 Key Usage: critical
                Certificate Sign, CRL Sign
            X509v3 Subject Key Identifier: 
                18:0A:72:DF:B6:FB:54:D2:E6:E6:D4:51:EC:C3:C0:28:52:57:16:FD
            X509v3 Authority Key Identifier: 
                keyid:18:0A:72:DF:B6:FB:54:D2:E6:E6:D4:51:EC:C3:C0:28:52:57:16:FD
                DirName:/O=Flumotion Services S.A./O=http://www.flumotion.net/feat/OU=Feat Core Team/CN=Feat Development Root CA/emailAddress=coreteam@flumotion.com/L=Barcelona/ST=Spain/C=ES
                serial:E1:82:F5:0D:36:ED:56:BA

            Authority Information Access: 
                CA Issuers - URI:http://www.flumotion.net/feat/dev_ca/cainfo.html

            X509v3 CRL Distribution Points: 
                URI:http://www.flumotion.net/feat/dev_crl/root_ca.crl

            X509v3 Certificate Policies: 
                Policy: Feat-CPS
                  CPS: http://www.flumotion.net/feat/dev_ca/feat_cps.html
                  User Notice:
                    Explicit Text: Flumotion Services S.A. Development Certification Practice Statement

    Signature Algorithm: sha1WithRSAEncryption
        9f:ac:43:c4:e6:a5:3b:2b:25:b7:c0:f1:f6:86:db:a5:cb:f6:
        29:d3:6b:c1:81:56:8a:52:ea:83:31:85:de:30:f7:e4:81:d5:
        63:67:08:0e:c2:3e:da:c0:77:cb:53:fc:a7:6c:19:2b:28:7a:
        25:0e:2b:32:8d:cd:5f:83:c1:b3:d4:f5:49:50:89:dd:b3:5a:
        1e:3a:f2:75:cd:63:b9:d0:92:6b:54:06:2f:9e:9e:00:d8:85:
        8a:49:ab:a7:07:c9:ce:5a:3d:fd:0a:96:79:8c:ab:bb:84:40:
        33:f2:f2:bf:c4:4d:f4:90:32:cd:f6:fa:32:02:80:f1:6e:54:
        86:7b:fc:1e:c4:a2:59:8a:8b:2e:99:20:6f:39:a1:e6:9b:db:
        f1:89:f0:fa:6d:cf:cf:ae:81:43:6f:f3:13:f5:51:16:e7:93:
        af:fb:42:64:d1:02:e4:d2:5b:db:a2:e7:b7:6f:c6:97:c7:21:
        8b:e6:62:c6:52:91:51:30:da:ce:bc:76:21:a2:b9:8d:9d:99:
        2f:77:1c:28:63:07:ca:85:25:3b:da:2b:e0:7b:ef:eb:1a:17:
        74:53:67:28:ee:ed:0c:9e:d8:60:50:d2:86:3c:ae:3c:db:bc:
        3b:de:52:3f:e4:1a:d7:10:a9:c3:f4:2b:56:12:a4:4f:f1:13:
        3d:a0:ea:0f
-----BEGIN CERTIFICATE-----
MIIG4zCCBcugAwIBAgIJAOGC9Q027Va6MA0GCSqGSIb3DQEBBQUAMIHeMSAwHgYD
VQQKExdGbHVtb3Rpb24gU2VydmljZXMgUy5BLjEmMCQGA1UEChMdaHR0cDovL3d3
dy5mbHVtb3Rpb24ubmV0L2ZlYXQxFzAVBgNVBAsTDkZlYXQgQ29yZSBUZWFtMSEw
HwYDVQQDExhGZWF0IERldmVsb3BtZW50IFJvb3QgQ0ExJTAjBgkqhkiG9w0BCQEW
FmNvcmV0ZWFtQGZsdW1vdGlvbi5jb20xEjAQBgNVBAcTCUJhcmNlbG9uYTEOMAwG
A1UECBMFU3BhaW4xCzAJBgNVBAYTAkVTMB4XDTExMDkwODE2MDgyMVoXDTI3MDkw
NDE2MDgyMVowgd4xIDAeBgNVBAoTF0ZsdW1vdGlvbiBTZXJ2aWNlcyBTLkEuMSYw
JAYDVQQKEx1odHRwOi8vd3d3LmZsdW1vdGlvbi5uZXQvZmVhdDEXMBUGA1UECxMO
RmVhdCBDb3JlIFRlYW0xITAfBgNVBAMTGEZlYXQgRGV2ZWxvcG1lbnQgUm9vdCBD
QTElMCMGCSqGSIb3DQEJARYWY29yZXRlYW1AZmx1bW90aW9uLmNvbTESMBAGA1UE
BxMJQmFyY2Vsb25hMQ4wDAYDVQQIEwVTcGFpbjELMAkGA1UEBhMCRVMwggEiMA0G
CSqGSIb3DQEBAQUAA4IBDwAwggEKAoIBAQC8snvnwkLlXcNrsMUo159FQvLTzUth
3DsUi/Lla29kMQCXxXOrulJwhT67bzB1WDgPbr/RbuxDWRalVUi2SIFv8GP/MIRk
rBqFjFMc7Lashm6wQ4HxmKsWQJW2e5jt2WR3LT69ayo3TvPDkwQKgG68ar061dbv
hMvQhHwXc9f4jSb5OAiiNhIQ1flyX3noR6HCTpPFAmbaJ4qskJUBrhp2PrUuZMej
9MfRP7zzqPzk3XZEx5Svrpxb/slKxR2ITATi5jKx03nI46TdtigP3M22s54Hdro0
8vFiJ/BvuF0pBDwY4TCtCLsfHlHK0Ds/jVsWcTxmY7yQ+u5Hhs+zFyZzAgMBAAGj
ggKgMIICnDAMBgNVHRMEBTADAQH/MA4GA1UdDwEB/wQEAwIBBjAdBgNVHQ4EFgQU
GApy37b7VNLm5tRR7MPAKFJXFv0wggEVBgNVHSMEggEMMIIBCIAUGApy37b7VNLm
5tRR7MPAKFJXFv2hgeSkgeEwgd4xIDAeBgNVBAoTF0ZsdW1vdGlvbiBTZXJ2aWNl
cyBTLkEuMSYwJAYDVQQKEx1odHRwOi8vd3d3LmZsdW1vdGlvbi5uZXQvZmVhdDEX
MBUGA1UECxMORmVhdCBDb3JlIFRlYW0xITAfBgNVBAMTGEZlYXQgRGV2ZWxvcG1l
bnQgUm9vdCBDQTElMCMGCSqGSIb3DQEJARYWY29yZXRlYW1AZmx1bW90aW9uLmNv
bTESMBAGA1UEBxMJQmFyY2Vsb25hMQ4wDAYDVQQIEwVTcGFpbjELMAkGA1UEBhMC
RVOCCQDhgvUNNu1WujBMBggrBgEFBQcBAQRAMD4wPAYIKwYBBQUHMAKGMGh0dHA6
Ly93d3cuZmx1bW90aW9uLm5ldC9mZWF0L2Rldl9jYS9jYWluZm8uaHRtbDBCBgNV
HR8EOzA5MDegNaAzhjFodHRwOi8vd3d3LmZsdW1vdGlvbi5uZXQvZmVhdC9kZXZf
Y3JsL3Jvb3RfY2EuY3JsMIGxBgNVHSAEgakwgaYwgaMGCisGAQQBgfIkAQEwgZQw
PgYIKwYBBQUHAgEWMmh0dHA6Ly93d3cuZmx1bW90aW9uLm5ldC9mZWF0L2Rldl9j
YS9mZWF0X2Nwcy5odG1sMFIGCCsGAQUFBwICMEYaREZsdW1vdGlvbiBTZXJ2aWNl
cyBTLkEuIERldmVsb3BtZW50IENlcnRpZmljYXRpb24gUHJhY3RpY2UgU3RhdGVt
ZW50MA0GCSqGSIb3DQEBBQUAA4IBAQCfrEPE5qU7KyW3wPH2htuly/Yp02vBgVaK
UuqDMYXeMPfkgdVjZwgOwj7awHfLU/ynbBkrKHolDisyjc1fg8Gz1PVJUInds1oe
OvJ1zWO50JJrVAYvnp4A2IWKSaunB8nOWj39CpZ5jKu7hEAz8vK/xE30kDLN9voy
AoDxblSGe/wexKJZiosumSBvOaHmm9vxifD6bc/ProFDb/MT9VEW55Ov+0Jk0QLk
0lvboue3b8aXxyGL5mLGUpFRMNrOvHYhormNnZkvdxwoYwfKhSU72ivge+/rGhd0
U2co7u0MnthgUNKGPK4827w73lI/5BrXEKnD9CtWEqRP8RM9oOoP
-----END CERTIFICATE-----
Certificate:
    Data:
        Version: 3 (0x2)
        Serial Number:
            e1:82:f5:0d:36:ed:56:bb
        Signature Algorithm: sha1WithRSAEncryption
        Issuer: O=Flumotion Services S.A., O=http://www.flumotion.net/feat, OU=Feat Core Team, CN=Feat Development Root CA/emailAddress=coreteam@flumotion.com, L=Barcelona, ST=Spain, C=ES
        Validity
            Not Before: Sep  8 16:08:48 2011 GMT
            Not After : Sep  6 16:08:48 2019 GMT
        Subject: O=Flumotion Services S.A., O=http://www.flumotion.net/feat, OU=Feat Core Team, CN=Feat Development Gateway CA/emailAddress=coreteam@flumotion.com, L=Barcelona, ST=Spain, C=ES
        Subject Public Key Info:
            Public Key Algorithm: rsaEncryption
            RSA Public Key: (2048 bit)
                Modulus (2048 bit):
                    00:ad:65:04:05:3c:d5:f5:3b:65:e2:32:a3:4c:5d:
                    dd:b9:1c:26:ee:83:11:4b:36:f8:25:a0:2b:de:89:
                    94:82:5b:c2:a9:5a:79:a7:b7:07:45:c5:fe:7e:93:
                    87:93:00:ab:37:ff:d9:27:5e:da:87:cd:bb:ac:88:
                    77:33:f7:87:31:50:ad:e8:9b:03:08:c7:a6:7d:1a:
                    38:78:c1:5f:21:c8:63:b0:26:8d:7e:cb:6d:9f:ef:
                    1d:c3:a7:07:84:5e:2b:19:d4:4b:9f:b1:a9:45:3e:
                    04:02:1c:49:75:3c:a4:6f:90:a8:c7:d9:b6:c5:8c:
                    39:8c:98:34:9d:3d:db:2d:81:2f:9b:3b:41:86:13:
                    91:4d:e2:be:08:16:8f:67:25:61:c4:4a:04:a1:49:
                    4c:91:71:cc:f0:10:77:e2:98:9f:b0:c9:d4:94:f5:
                    3b:ca:5a:0b:c0:d4:f9:b3:6e:06:25:e5:fc:71:a5:
                    21:81:61:b0:e1:fc:e1:49:f9:75:b6:06:99:63:f8:
                    0b:04:88:31:bb:7e:9f:f9:db:71:ea:a9:50:cb:30:
                    31:b4:2d:5a:32:dd:40:01:0c:b3:14:fc:1b:50:6c:
                    36:87:64:52:2d:0b:f2:56:15:16:9b:7c:29:b3:e2:
                    da:e5:44:5e:e8:96:68:61:7a:d5:86:71:64:06:09:
                    86:95
                Exponent: 65537 (0x10001)
        X509v3 extensions:
            X509v3 Basic Constraints: 
                CA:TRUE
            X509v3 Key Usage: critical
                Certificate Sign, CRL Sign
            X509v3 Subject Key Identifier: 
                70:5A:F6:0D:BF:4B:E4:B9:CC:25:DB:A1:DC:B2:55:9B:75:D7:76:24
            X509v3 Authority Key Identifier: 
                keyid:18:0A:72:DF:B6:FB:54:D2:E6:E6:D4:51:EC:C3:C0:28:52:57:16:FD

            Authority Information Access: 
                CA Issuers - URI:http://www.flumotion.net/feat/dev_ca/cainfo.html

            X509v3 CRL Distribution Points: 
                URI:http://www.flumotion.net/feat/dev_crl/root_ca.crl

            X509v3 Certificate Policies: 
                Policy: Feat-CPS
                  CPS: http://www.flumotion.net/feat/dev_ca/feat_cps.html
                  User Notice:
                    Explicit Text: Flumotion Services S.A. Development Certification Practice Statement
                Policy: Feat-CA-Cert
                  User Notice:
                    Explicit Text: Flumotion Services S.A. Development CA Certificate Policy

    Signature Algorithm: sha1WithRSAEncryption
        2f:a9:f3:1f:6f:8a:01:22:49:74:4d:ad:da:2e:99:a4:6e:af:
        3e:fa:cf:a5:90:0c:7b:65:63:96:7f:45:04:8d:a0:aa:2a:46:
        6d:d7:e1:b3:bf:0a:67:0c:84:e9:a6:b9:b2:08:3a:c5:ff:1b:
        9d:2a:bc:28:17:17:cc:e0:87:64:b4:cf:3f:de:15:1a:8f:f8:
        cf:0c:53:1e:4a:65:52:94:34:4c:b3:8a:46:d9:f4:9c:c4:c1:
        f2:82:2f:cf:d2:60:6c:c7:33:fd:be:12:12:95:54:86:39:e7:
        56:af:17:4b:a2:1b:24:8b:80:95:b5:6f:9a:90:27:d1:f8:7c:
        6c:90:e4:72:eb:0a:2b:2f:84:6a:c9:e7:81:d7:2e:9f:a1:de:
        97:1e:63:82:3a:be:cb:dc:0e:20:75:e6:88:7f:fe:45:be:ed:
        3f:d2:b3:a8:a0:61:43:36:f1:fa:ef:d3:c7:91:3a:76:2e:a3:
        70:38:5a:ad:7e:a9:02:a0:4b:cd:fb:19:80:1c:2b:48:f7:8c:
        72:ab:c4:bd:1e:da:a2:05:94:e2:78:c8:c0:a6:fd:e4:e5:1d:
        3c:29:e0:f9:59:25:6b:83:1c:ec:0f:d7:73:4f:e8:54:69:0b:
        ff:36:ad:43:c5:f2:48:4b:e4:f6:5f:50:da:e6:23:67:27:6f:
        24:f5:cf:ed
-----BEGIN CERTIFICATE-----
MIIGSTCCBTGgAwIBAgIJAOGC9Q027Va7MA0GCSqGSIb3DQEBBQUAMIHeMSAwHgYD
VQQKExdGbHVtb3Rpb24gU2VydmljZXMgUy5BLjEmMCQGA1UEChMdaHR0cDovL3d3
dy5mbHVtb3Rpb24ubmV0L2ZlYXQxFzAVBgNVBAsTDkZlYXQgQ29yZSBUZWFtMSEw
HwYDVQQDExhGZWF0IERldmVsb3BtZW50IFJvb3QgQ0ExJTAjBgkqhkiG9w0BCQEW
FmNvcmV0ZWFtQGZsdW1vdGlvbi5jb20xEjAQBgNVBAcTCUJhcmNlbG9uYTEOMAwG
A1UECBMFU3BhaW4xCzAJBgNVBAYTAkVTMB4XDTExMDkwODE2MDg0OFoXDTE5MDkw
NjE2MDg0OFowgeExIDAeBgNVBAoTF0ZsdW1vdGlvbiBTZXJ2aWNlcyBTLkEuMSYw
JAYDVQQKEx1odHRwOi8vd3d3LmZsdW1vdGlvbi5uZXQvZmVhdDEXMBUGA1UECxMO
RmVhdCBDb3JlIFRlYW0xJDAiBgNVBAMTG0ZlYXQgRGV2ZWxvcG1lbnQgR2F0ZXdh
eSBDQTElMCMGCSqGSIb3DQEJARYWY29yZXRlYW1AZmx1bW90aW9uLmNvbTESMBAG
A1UEBxMJQmFyY2Vsb25hMQ4wDAYDVQQIEwVTcGFpbjELMAkGA1UEBhMCRVMwggEi
MA0GCSqGSIb3DQEBAQUAA4IBDwAwggEKAoIBAQCtZQQFPNX1O2XiMqNMXd25HCbu
gxFLNvgloCveiZSCW8KpWnmntwdFxf5+k4eTAKs3/9knXtqHzbusiHcz94cxUK3o
mwMIx6Z9Gjh4wV8hyGOwJo1+y22f7x3DpweEXisZ1EufsalFPgQCHEl1PKRvkKjH
2bbFjDmMmDSdPdstgS+bO0GGE5FN4r4IFo9nJWHESgShSUyRcczwEHfimJ+wydSU
9TvKWgvA1PmzbgYl5fxxpSGBYbDh/OFJ+XW2Bplj+AsEiDG7fp/523HqqVDLMDG0
LVoy3UABDLMU/BtQbDaHZFItC/JWFRabfCmz4trlRF7olmhhetWGcWQGCYaVAgMB
AAGjggIDMIIB/zAMBgNVHRMEBTADAQH/MA4GA1UdDwEB/wQEAwIBBjAdBgNVHQ4E
FgQUcFr2Db9L5LnMJduh3LJVm3XXdiQwHwYDVR0jBBgwFoAUGApy37b7VNLm5tRR
7MPAKFJXFv0wTAYIKwYBBQUHAQEEQDA+MDwGCCsGAQUFBzAChjBodHRwOi8vd3d3
LmZsdW1vdGlvbi5uZXQvZmVhdC9kZXZfY2EvY2FpbmZvLmh0bWwwQgYDVR0fBDsw
OTA3oDWgM4YxaHR0cDovL3d3dy5mbHVtb3Rpb24ubmV0L2ZlYXQvZGV2X2NybC9y
b290X2NhLmNybDCCAQsGA1UdIASCAQIwgf8wgaMGCisGAQQBgfIkAQEwgZQwPgYI
KwYBBQUHAgEWMmh0dHA6Ly93d3cuZmx1bW90aW9uLm5ldC9mZWF0L2Rldl9jYS9m
ZWF0X2Nwcy5odG1sMFIGCCsGAQUFBwICMEYaREZsdW1vdGlvbiBTZXJ2aWNlcyBT
LkEuIERldmVsb3BtZW50IENlcnRpZmljYXRpb24gUHJhY3RpY2UgU3RhdGVtZW50
MFcGCisGAQQBgfIkAQIwSTBHBggrBgEFBQcCAjA7GjlGbHVtb3Rpb24gU2Vydmlj
ZXMgUy5BLiBEZXZlbG9wbWVudCBDQSBDZXJ0aWZpY2F0ZSBQb2xpY3kwDQYJKoZI
hvcNAQEFBQADggEBAC+p8x9vigEiSXRNrdoumaRurz76z6WQDHtlY5Z/RQSNoKoq
Rm3X4bO/CmcMhOmmubIIOsX/G50qvCgXF8zgh2S0zz/eFRqP+M8MUx5KZVKUNEyz
ikbZ9JzEwfKCL8/SYGzHM/2+EhKVVIY551avF0uiGySLgJW1b5qQJ9H4fGyQ5HLr
CisvhGrJ54HXLp+h3pceY4I6vsvcDiB15oh//kW+7T/Ss6igYUM28frv08eROnYu
o3A4Wq1+qQKgS837GYAcK0j3jHKrxL0e2qIFlOJ4yMCm/eTlHTwp4PlZJWuDHOwP
13NP6FRpC/82rUPF8khL5PZfUNrmI2cnbyT1z+0=
-----END CERTIFICATE-----
