Certificate:
    Data:
        Version: 3 (0x2)
        Serial Number:
            f2:bb:40:d3:03:5c:55:c3
        Signature Algorithm: sha1WithRSAEncryption
        Issuer: O=Opensource, O=https://github.com/f3at/feat, OU=Feat Core Team, CN=Feat Development Root CA/emailAddress=kowalski0123@gmail.com, L=Barcelona, ST=Spain, C=ES
        Validity
            Not Before: Mar 23 09:21:34 2012 GMT
            Not After : Mar 19 09:21:34 2028 GMT
        Subject: O=Opensource, O=https://github.com/f3at/feat, OU=Feat Core Team, CN=Feat Development Root CA/emailAddress=kowalski0123@gmail.com, L=Barcelona, ST=Spain, C=ES
        Subject Public Key Info:
            Public Key Algorithm: rsaEncryption
            RSA Public Key: (2048 bit)
                Modulus (2048 bit):
                    00:ab:54:9f:08:ae:40:d8:2d:51:ad:4d:97:1b:9c:
                    97:9b:92:ef:dc:c2:8c:e3:e6:c7:68:b5:8e:17:9c:
                    7b:7e:db:00:4c:18:54:88:6e:83:7c:73:c6:f5:38:
                    e2:1b:74:8e:21:7b:e2:d2:f9:07:4d:58:e8:ca:2d:
                    52:bf:a2:9e:5f:6f:aa:1e:47:ed:89:fc:23:4b:cb:
                    c0:78:0e:d9:fa:04:16:f5:3c:53:68:d7:24:ce:0c:
                    28:a4:88:55:25:f6:cb:c3:b1:bb:43:d9:c5:52:16:
                    d6:df:61:05:b2:3d:97:c4:2d:f4:03:6c:54:0b:fd:
                    56:e2:af:52:04:e3:9a:3c:a4:07:b2:8f:12:4e:a0:
                    5a:86:3e:74:12:21:67:fb:53:3e:c6:8e:94:89:44:
                    32:ce:a2:b0:98:46:94:6e:79:6d:40:96:59:28:e3:
                    8a:07:d8:0e:21:65:b7:71:5b:63:4b:4b:2f:c0:58:
                    c3:a4:fc:f7:0f:7f:1e:c2:1f:88:bc:22:0e:4c:f8:
                    93:c3:09:72:cb:6a:1b:7c:df:83:40:4e:4c:42:91:
                    98:43:b9:45:a7:bd:ab:e0:a1:dc:4b:33:fa:56:83:
                    1e:ca:03:6a:48:ba:9c:1e:7e:5d:40:aa:c2:27:03:
                    3d:c3:22:94:38:3b:8e:82:90:69:53:6a:9f:9f:20:
                    d1:57
                Exponent: 65537 (0x10001)
        X509v3 extensions:
            X509v3 Basic Constraints: 
                CA:TRUE
            X509v3 Key Usage: critical
                Certificate Sign, CRL Sign
            X509v3 Subject Key Identifier: 
                EA:52:8D:B0:A3:DF:FC:A6:71:29:C6:6A:29:71:91:19:FA:02:0F:E4
            X509v3 Authority Key Identifier: 
                keyid:EA:52:8D:B0:A3:DF:FC:A6:71:29:C6:6A:29:71:91:19:FA:02:0F:E4
                DirName:/O=Opensource/O=https://github.com/f3at/feat/OU=Feat Core Team/CN=Feat Development Root CA/emailAddress=kowalski0123@gmail.com/L=Barcelona/ST=Spain/C=ES
                serial:F2:BB:40:D3:03:5C:55:C3

            Authority Information Access: 
                CA Issuers - URI:https://github.com/f3at/feat/dev_ca/cainfo.html

            X509v3 CRL Distribution Points: 
                URI:https://github.com/f3at/feat/dev_crl/root_ca.crl

            X509v3 Certificate Policies: 
                Policy: Feat-CPS
                  CPS: https://github.com/f3at/feat/dev_ca/feat_cps.html
                  User Notice:
                    Explicit Text: Opensource Development Certification Practice Statement

    Signature Algorithm: sha1WithRSAEncryption
        86:07:28:56:41:dd:6e:b5:f3:a6:29:e6:4f:a6:4f:a7:b0:c9:
        d4:d6:a4:f0:91:17:ad:4f:b1:1b:67:8b:65:79:f3:95:1f:90:
        77:b3:e2:96:67:7b:b2:c8:73:79:ab:62:1a:06:09:4f:7d:fa:
        23:cb:11:d4:50:ed:4f:55:10:49:15:66:46:38:34:29:ca:01:
        e0:74:40:72:ac:14:5a:ef:4c:31:24:df:27:af:06:fa:e2:9c:
        57:77:73:84:f8:f2:fd:93:a0:e7:98:34:89:66:76:11:7b:08:
        d9:63:d2:d5:58:c6:04:01:f8:21:ba:75:73:6e:49:8c:d8:4d:
        3d:8d:4f:e8:02:3e:34:8f:9b:12:a1:d2:97:dd:24:18:ae:bf:
        6f:c5:d0:ae:4d:a8:ce:30:4d:d0:dd:e3:3f:ff:e8:11:ff:23:
        5a:91:da:b1:69:a5:33:91:97:05:84:8a:a9:2e:93:68:97:35:
        68:53:93:b1:9c:ca:83:89:db:f3:48:4a:7e:97:ec:2c:18:cb:
        f7:cc:47:c3:8c:eb:ca:41:f0:3d:dc:5a:ed:2a:c0:56:ec:92:
        fa:1c:7a:e6:b8:40:2a:21:b0:e8:45:24:02:94:d2:84:15:2e:
        ae:94:38:8d:66:9e:a1:f8:cf:61:6b:d6:4e:36:74:9c:91:1a:
        47:54:22:b4
-----BEGIN CERTIFICATE-----
MIIGpzCCBY+gAwIBAgIJAPK7QNMDXFXDMA0GCSqGSIb3DQEBBQUAMIHQMRMwEQYD
VQQKEwpPcGVuc291cmNlMSUwIwYDVQQKExxodHRwczovL2dpdGh1Yi5jb20vZjNh
dC9mZWF0MRcwFQYDVQQLEw5GZWF0IENvcmUgVGVhbTEhMB8GA1UEAxMYRmVhdCBE
ZXZlbG9wbWVudCBSb290IENBMSUwIwYJKoZIhvcNAQkBFhZrb3dhbHNraTAxMjNA
Z21haWwuY29tMRIwEAYDVQQHEwlCYXJjZWxvbmExDjAMBgNVBAgTBVNwYWluMQsw
CQYDVQQGEwJFUzAeFw0xMjAzMjMwOTIxMzRaFw0yODAzMTkwOTIxMzRaMIHQMRMw
EQYDVQQKEwpPcGVuc291cmNlMSUwIwYDVQQKExxodHRwczovL2dpdGh1Yi5jb20v
ZjNhdC9mZWF0MRcwFQYDVQQLEw5GZWF0IENvcmUgVGVhbTEhMB8GA1UEAxMYRmVh
dCBEZXZlbG9wbWVudCBSb290IENBMSUwIwYJKoZIhvcNAQkBFhZrb3dhbHNraTAx
MjNAZ21haWwuY29tMRIwEAYDVQQHEwlCYXJjZWxvbmExDjAMBgNVBAgTBVNwYWlu
MQswCQYDVQQGEwJFUzCCASIwDQYJKoZIhvcNAQEBBQADggEPADCCAQoCggEBAKtU
nwiuQNgtUa1Nlxucl5uS79zCjOPmx2i1jhece37bAEwYVIhug3xzxvU44ht0jiF7
4tL5B01Y6MotUr+inl9vqh5H7Yn8I0vLwHgO2foEFvU8U2jXJM4MKKSIVSX2y8Ox
u0PZxVIW1t9hBbI9l8Qt9ANsVAv9VuKvUgTjmjykB7KPEk6gWoY+dBIhZ/tTPsaO
lIlEMs6isJhGlG55bUCWWSjjigfYDiFlt3FbY0tLL8BYw6T89w9/HsIfiLwiDkz4
k8MJcstqG3zfg0BOTEKRmEO5Rae9q+Ch3Esz+laDHsoDaki6nB5+XUCqwicDPcMi
lDg7joKQaVNqn58g0VcCAwEAAaOCAoAwggJ8MAwGA1UdEwQFMAMBAf8wDgYDVR0P
AQH/BAQDAgEGMB0GA1UdDgQWBBTqUo2wo9/8pnEpxmopcZEZ+gIP5DCCAQUGA1Ud
IwSB/TCB+oAU6lKNsKPf/KZxKcZqKXGRGfoCD+ShgdakgdMwgdAxEzARBgNVBAoT
Ck9wZW5zb3VyY2UxJTAjBgNVBAoTHGh0dHBzOi8vZ2l0aHViLmNvbS9mM2F0L2Zl
YXQxFzAVBgNVBAsTDkZlYXQgQ29yZSBUZWFtMSEwHwYDVQQDExhGZWF0IERldmVs
b3BtZW50IFJvb3QgQ0ExJTAjBgkqhkiG9w0BCQEWFmtvd2Fsc2tpMDEyM0BnbWFp
bC5jb20xEjAQBgNVBAcTCUJhcmNlbG9uYTEOMAwGA1UECBMFU3BhaW4xCzAJBgNV
BAYTAkVTggkA8rtA0wNcVcMwSwYIKwYBBQUHAQEEPzA9MDsGCCsGAQUFBzAChi9o
dHRwczovL2dpdGh1Yi5jb20vZjNhdC9mZWF0L2Rldl9jYS9jYWluZm8uaHRtbDBB
BgNVHR8EOjA4MDagNKAyhjBodHRwczovL2dpdGh1Yi5jb20vZjNhdC9mZWF0L2Rl
dl9jcmwvcm9vdF9jYS5jcmwwgaMGA1UdIASBmzCBmDCBlQYKKwYBBAGB8iQBATCB
hjA9BggrBgEFBQcCARYxaHR0cHM6Ly9naXRodWIuY29tL2YzYXQvZmVhdC9kZXZf
Y2EvZmVhdF9jcHMuaHRtbDBFBggrBgEFBQcCAjA5GjdPcGVuc291cmNlIERldmVs
b3BtZW50IENlcnRpZmljYXRpb24gUHJhY3RpY2UgU3RhdGVtZW50MA0GCSqGSIb3
DQEBBQUAA4IBAQCGByhWQd1utfOmKeZPpk+nsMnU1qTwkRetT7EbZ4tlefOVH5B3
s+KWZ3uyyHN5q2IaBglPffojyxHUUO1PVRBJFWZGODQpygHgdEByrBRa70wxJN8n
rwb64pxXd3OE+PL9k6DnmDSJZnYRewjZY9LVWMYEAfghunVzbkmM2E09jU/oAj40
j5sSodKX3SQYrr9vxdCuTajOME3Q3eM//+gR/yNakdqxaaUzkZcFhIqpLpNolzVo
U5OxnMqDidvzSEp+l+wsGMv3zEfDjOvKQfA93FrtKsBW7JL6HHrmuEAqIbDoRSQC
lNKEFS6ulDiNZp6h+M9ha9ZONnSckRpHVCK0
-----END CERTIFICATE-----
Certificate:
    Data:
        Version: 3 (0x2)
        Serial Number:
            f2:bb:40:d3:03:5c:55:c5
        Signature Algorithm: sha1WithRSAEncryption
        Issuer: O=Opensource, O=https://github.com/f3at/feat, OU=Feat Core Team, CN=Feat Development Root CA/emailAddress=kowalski0123@gmail.com, L=Barcelona, ST=Spain, C=ES
        Validity
            Not Before: Mar 23 09:22:26 2012 GMT
            Not After : Mar 21 09:22:26 2020 GMT
        Subject: O=Opensource, O=https://github.com/f3at/feat, OU=Feat Core Team, CN=Feat Development Gateway CA/emailAddress=kowalski0123@gmail.com, L=Barcelona, ST=Spain, C=ES
        Subject Public Key Info:
            Public Key Algorithm: rsaEncryption
            RSA Public Key: (2048 bit)
                Modulus (2048 bit):
                    00:cd:c2:71:5e:75:2a:e5:ed:a6:95:6e:82:e6:93:
                    3c:c0:9c:49:5c:37:8e:85:99:75:5d:2f:c1:61:15:
                    ec:e7:87:4f:11:02:55:06:ef:8b:ed:2c:70:5a:2d:
                    31:ff:3f:48:e0:39:3a:05:61:35:ae:16:1b:1d:be:
                    a9:98:44:74:d6:8b:16:4f:cc:f8:3d:13:29:ce:fa:
                    0a:3c:dc:d8:1b:08:ea:0c:22:0c:70:26:7a:34:37:
                    e7:23:2f:66:d1:e4:55:13:f4:7f:3d:a1:f9:13:cd:
                    31:3c:1e:a2:20:3a:9a:a0:dd:76:e4:e7:78:47:d5:
                    aa:50:ad:90:b7:09:e5:e0:97:a6:4e:4d:5b:9a:81:
                    61:e8:3f:58:e2:5c:5c:c2:b2:ba:c1:b2:58:b0:91:
                    14:79:7b:6b:1f:44:8a:e9:b0:92:d4:83:6d:d7:3c:
                    27:60:07:f5:28:a5:d0:58:3b:e8:8e:79:42:9e:38:
                    a9:51:6b:3e:2c:1e:47:6f:af:cd:78:e6:52:b7:2f:
                    db:c8:26:dc:ab:84:59:56:9b:6f:31:99:d4:7c:25:
                    9f:17:c3:22:a8:19:45:af:60:0f:a6:be:0a:f7:9e:
                    c5:d4:28:00:82:76:1a:ff:e3:89:d2:1e:37:09:d7:
                    9b:6b:2b:55:1c:46:b7:cb:06:49:8e:5f:15:32:1c:
                    41:69
                Exponent: 65537 (0x10001)
        X509v3 extensions:
            X509v3 Basic Constraints: 
                CA:TRUE
            X509v3 Key Usage: critical
                Certificate Sign, CRL Sign
            X509v3 Subject Key Identifier: 
                29:2F:C3:28:52:A0:4A:AD:F6:84:01:F4:F0:29:CC:04:CC:FE:07:F2
            X509v3 Authority Key Identifier: 
                keyid:EA:52:8D:B0:A3:DF:FC:A6:71:29:C6:6A:29:71:91:19:FA:02:0F:E4

            Authority Information Access: 
                CA Issuers - URI:https://github.com/f3at/feat/dev_ca/cainfo.html

            X509v3 CRL Distribution Points: 
                URI:https://github.com/f3at/feat/dev_crl/root_ca.crl

            X509v3 Certificate Policies: 
                Policy: Feat-CPS
                  CPS: https://github.com/f3at/feat/dev_ca/feat_cps.html
                  User Notice:
                    Explicit Text: Opensource Development Certification Practice Statement
                Policy: Feat-CA-Cert
                  User Notice:
                    Explicit Text: Opensource Development CA Certificate Policy

    Signature Algorithm: sha1WithRSAEncryption
        8b:eb:f0:44:5b:d6:e3:2f:88:3e:89:b0:1b:15:85:c2:e9:88:
        39:42:44:eb:61:72:4b:1b:51:e6:0f:88:6e:29:a2:c8:4a:4a:
        f9:83:d0:73:22:b5:58:a9:cd:82:71:b7:51:7e:34:22:f7:4f:
        e3:09:25:d4:4d:03:dc:73:0d:0f:98:72:04:a0:d2:40:b5:61:
        21:9a:99:90:a2:7b:68:ed:57:7b:55:f7:f6:9d:a1:96:a6:10:
        4a:08:d4:0e:2a:da:84:32:cc:49:64:0d:bb:dd:8c:fc:5c:37:
        62:d9:db:fd:75:36:6e:99:67:bb:1e:f9:d3:10:8a:00:a4:83:
        06:26:50:6f:c6:c5:1f:35:15:a4:e8:57:2f:90:f5:0f:06:27:
        36:ad:cb:2d:76:86:62:f8:ae:fc:11:d3:af:c0:e3:95:4d:fd:
        53:63:b7:5a:00:b3:e2:cf:4e:53:8c:91:c2:73:87:8a:92:11:
        8b:02:70:18:a0:46:f9:78:ea:0b:ea:42:97:43:6d:d1:53:11:
        3d:5c:79:bb:7f:2f:83:fb:3d:f9:84:c1:4b:aa:d8:cf:dc:c5:
        dc:d5:b9:26:06:57:8f:90:c8:f4:ba:65:c8:d2:5d:64:dc:dc:
        10:7e:fa:f3:ec:3d:0d:ab:ee:19:8e:a2:07:ac:f0:bf:ef:16:
        c4:4d:b7:b3
-----BEGIN CERTIFICATE-----
MIIGDjCCBPagAwIBAgIJAPK7QNMDXFXFMA0GCSqGSIb3DQEBBQUAMIHQMRMwEQYD
VQQKEwpPcGVuc291cmNlMSUwIwYDVQQKExxodHRwczovL2dpdGh1Yi5jb20vZjNh
dC9mZWF0MRcwFQYDVQQLEw5GZWF0IENvcmUgVGVhbTEhMB8GA1UEAxMYRmVhdCBE
ZXZlbG9wbWVudCBSb290IENBMSUwIwYJKoZIhvcNAQkBFhZrb3dhbHNraTAxMjNA
Z21haWwuY29tMRIwEAYDVQQHEwlCYXJjZWxvbmExDjAMBgNVBAgTBVNwYWluMQsw
CQYDVQQGEwJFUzAeFw0xMjAzMjMwOTIyMjZaFw0yMDAzMjEwOTIyMjZaMIHTMRMw
EQYDVQQKEwpPcGVuc291cmNlMSUwIwYDVQQKExxodHRwczovL2dpdGh1Yi5jb20v
ZjNhdC9mZWF0MRcwFQYDVQQLEw5GZWF0IENvcmUgVGVhbTEkMCIGA1UEAxMbRmVh
dCBEZXZlbG9wbWVudCBHYXRld2F5IENBMSUwIwYJKoZIhvcNAQkBFhZrb3dhbHNr
aTAxMjNAZ21haWwuY29tMRIwEAYDVQQHEwlCYXJjZWxvbmExDjAMBgNVBAgTBVNw
YWluMQswCQYDVQQGEwJFUzCCASIwDQYJKoZIhvcNAQEBBQADggEPADCCAQoCggEB
AM3CcV51KuXtppVuguaTPMCcSVw3joWZdV0vwWEV7OeHTxECVQbvi+0scFotMf8/
SOA5OgVhNa4WGx2+qZhEdNaLFk/M+D0TKc76Cjzc2BsI6gwiDHAmejQ35yMvZtHk
VRP0fz2h+RPNMTweoiA6mqDdduTneEfVqlCtkLcJ5eCXpk5NW5qBYeg/WOJcXMKy
usGyWLCRFHl7ax9EiumwktSDbdc8J2AH9Sil0Fg76I55Qp44qVFrPiweR2+vzXjm
Urcv28gm3KuEWVabbzGZ1HwlnxfDIqgZRa9gD6a+CveexdQoAIJ2Gv/jidIeNwnX
m2srVRxGt8sGSY5fFTIcQWkCAwEAAaOCAeQwggHgMAwGA1UdEwQFMAMBAf8wDgYD
VR0PAQH/BAQDAgEGMB0GA1UdDgQWBBQpL8MoUqBKrfaEAfTwKcwEzP4H8jAfBgNV
HSMEGDAWgBTqUo2wo9/8pnEpxmopcZEZ+gIP5DBLBggrBgEFBQcBAQQ/MD0wOwYI
KwYBBQUHMAKGL2h0dHBzOi8vZ2l0aHViLmNvbS9mM2F0L2ZlYXQvZGV2X2NhL2Nh
aW5mby5odG1sMEEGA1UdHwQ6MDgwNqA0oDKGMGh0dHBzOi8vZ2l0aHViLmNvbS9m
M2F0L2ZlYXQvZGV2X2NybC9yb290X2NhLmNybDCB7wYDVR0gBIHnMIHkMIGVBgor
BgEEAYHyJAEBMIGGMD0GCCsGAQUFBwIBFjFodHRwczovL2dpdGh1Yi5jb20vZjNh
dC9mZWF0L2Rldl9jYS9mZWF0X2Nwcy5odG1sMEUGCCsGAQUFBwICMDkaN09wZW5z
b3VyY2UgRGV2ZWxvcG1lbnQgQ2VydGlmaWNhdGlvbiBQcmFjdGljZSBTdGF0ZW1l
bnQwSgYKKwYBBAGB8iQBAjA8MDoGCCsGAQUFBwICMC4aLE9wZW5zb3VyY2UgRGV2
ZWxvcG1lbnQgQ0EgQ2VydGlmaWNhdGUgUG9saWN5MA0GCSqGSIb3DQEBBQUAA4IB
AQCL6/BEW9bjL4g+ibAbFYXC6Yg5QkTrYXJLG1HmD4huKaLISkr5g9BzIrVYqc2C
cbdRfjQi90/jCSXUTQPccw0PmHIEoNJAtWEhmpmQonto7Vd7Vff2naGWphBKCNQO
KtqEMsxJZA273Yz8XDdi2dv9dTZumWe7HvnTEIoApIMGJlBvxsUfNRWk6FcvkPUP
Bic2rcstdoZi+K78EdOvwOOVTf1TY7daALPiz05TjJHCc4eKkhGLAnAYoEb5eOoL
6kKXQ23RUxE9XHm7fy+D+z35hMFLqtjP3MXc1bkmBlePkMj0umXI0l1k3NwQfvrz
7D0Nq+4ZjqIHrPC/7xbETbez
-----END CERTIFICATE-----
